Warning[w6]: Type conflict for external/entry "memset", in module display against external/entry in module ?memset; prototyped function vs K&R function
  /* In module display: */
  /* K&R Function, args 0, attr 0 */
  int (__cc_version2 memset)();
  /* In module ?memset: */
  /* Function, args 3, attr 0 */
  void * (__cc_version2 memset)(void *,
                                int,
                                size_t);
    typedef _Sizet size_t;
    typedef unsigned int _Sizet;
################################################################################
#                                                                              #
#      IAR Universal Linker V4.61T/W32                                         #
#                                                                              #
#           Link time     =  05/May/2012  17:27:38                             #
#           Target CPU    =  MSP430                                            #
#           List file     =  E:\工程\小个体\程序\samllSamp\Debug\List\Asad0.1. #
#                            map                                               #
#           Output file 1 =  E:\工程\小个体\程序\samllSamp\Debug\Exe\Asad0.1.d #
#                            43                                                #
#                            Format: debug                                     #
#                            UBROF version 10.0.3                              #
#                            Using library modules for C-SPY (-rt)             #
#           Command line  =  E:\工程\小个体\程序\samllSamp\Debug\Obj\adc12.r43 #
#                            E:\工程\小个体\程序\samllSamp\Debug\Obj\charger.r #
#                            43                                                #
#                            E:\工程\小个体\程序\samllSamp\Debug\Obj\chip.r43  #
#                            E:\工程\小个体\程序\samllSamp\Debug\Obj\clock.r43 #
#                            E:\工程\小个体\程序\samllSamp\Debug\Obj\display.r #
#                            43                                                #
#                            E:\工程\小个体\程序\samllSamp\Debug\Obj\ds1302.r4 #
#                            3                                                 #
#                            E:\工程\小个体\程序\samllSamp\Debug\Obj\flash.r43 #
#                            E:\工程\小个体\程序\samllSamp\Debug\Obj\kernel.r4 #
#                            3                                                 #
#                            E:\工程\小个体\程序\samllSamp\Debug\Obj\key.r43   #
#                            E:\工程\小个体\程序\samllSamp\Debug\Obj\lcd.r43   #
#                            E:\工程\小个体\程序\samllSamp\Debug\Obj\main.r43  #
#                            E:\工程\小个体\程序\samllSamp\Debug\Obj\menu.r43  #
#                            E:\工程\小个体\程序\samllSamp\Debug\Obj\port.r43  #
#                            E:\工程\小个体\程序\samllSamp\Debug\Obj\pump.r43  #
#                            E:\工程\小个体\程序\samllSamp\Debug\Obj\semaphore #
#                            .r43                                              #
#                            E:\工程\小个体\程序\samllSamp\Debug\Obj\stack.r43 #
#                            E:\工程\小个体\程序\samllSamp\Debug\Obj\task.r43  #
#                            E:\工程\小个体\程序\samllSamp\Debug\Obj\taskqueue #
#                            .r43                                              #
#                            E:\工程\小个体\程序\samllSamp\Debug\Obj\test.r43  #
#                            -o                                                #
#                            E:\工程\小个体\程序\samllSamp\Debug\Exe\Asad0.1.d #
#                            43                                                #
#                            -l                                                #
#                            E:\工程\小个体\程序\samllSamp\Debug\List\Asad0.1. #
#                            map                                               #
#                            -xms                                              #
#                            "-IC:\Program Files\IAR Systems\Embedded Workbenc #
#                            h 6.0 Evaluation\430\LIB\"                        #
#                            -f                                                #
#                            "C:\Program Files\IAR Systems\Embedded Workbench  #
#                            6.0 Evaluation\430\CONFIG\lnk430F5438.xcl"        #
#                            (-cmsp430 -QCODE_I=CODE_ID                        #
#                            -Z(DATA)DATA16_I,DATA16_Z,DATA16_N,DATA16_HEAP+_D #
#                            ATA16_HEAP_SIZE=1C00-5BFF                         #
#                            -Z(DATA)CODE_I                                    #
#                            -Z(DATA)DATA20_I,DATA20_Z,DATA20_N,DATA20_HEAP+_D #
#                            ATA20_HEAP_SIZE                                   #
#                            -Z(DATA)CSTACK+_STACK_SIZE#                       #
#                            -Z(CONST)INFO=1800-19FF                           #
#                            -Z(CONST)INFOA=1980-19FF                          #
#                            -Z(CONST)INFOB=1900-197F                          #
#                            -Z(CONST)INFOC=1880-18FF                          #
#                            -Z(CONST)INFOD=1800-187F                          #
#                            -Z(CODE)CSTART,ISR_CODE=5C00-FF7F                 #
#                            -Z(CONST)DATA16_C,DATA16_ID,DIFUNCT,CHECKSUM=5C00 #
#                            -FF7F                                             #
#                            -P(CODE)CODE=5C00-FF7F,10000-45BFF                #
#                            -Z(CODE)CODE_ID                                   #
#                            -Z(CONST)DATA20_C,DATA20_ID=5C00-FF7F,10000-45BFF #
#                            -Z(CODE)INTVEC=FF80-FFFF                          #
#                            -Z(CODE)RESET=FFFE-FFFF) -f                       #
#                            "C:\Program Files\IAR Systems\Embedded Workbench  #
#                            6.0 Evaluation\430\config\multiplier32_loc2.xcl"  #
#                            (-e?Mul8HwLoc2=?Mul8 -e?Mul16HwLoc2=?Mul16        #
#                            -e?Mul16to32uHwLoc2=?Mul16to32u                   #
#                            -e?Mul16to32sHwLoc2=?Mul16to32s                   #
#                            -e?Mul32Hw32Loc2=?Mul32                           #
#                            -e?Mul64Hw32Loc2=_Mul64i                          #
#                            -e?Mul32u32uto64iHw32Loc2=_Mul32u32uto64i         #
#                            -e?Mul32fHwLoc2=_Mul32f                           #
#                            -e_Mul64fHwPtrLoc2=_Mul64fPtr)                    #
#                            -D_STACK_SIZE=100 -rt                             #
#                            "C:\Program Files\IAR Systems\Embedded Workbench  #
#                            6.0 Evaluation\430\LIB\DLIB\dl430xsff.r43"        #
#                            -e_PrintfLarge=_Printf -e_ScanfLarge=_Scanf       #
#                            -D_DATA16_HEAP_SIZE=1000 -s __program_start       #
#                            -D_DATA20_HEAP_SIZE=1000                          #
#                                                                              #
#                           Copyright (C) 1987-2010 IAR Systems AB.            #
################################################################################





                ****************************************
                *                                      *
                *           CROSS REFERENCE            *
                *                                      *
                ****************************************

       Program entry at :           5C00  Relocatable, from module : ?cstart




                ****************************************
                *                                      *
                *            RUNTIME MODEL             *
                *                                      *
                ****************************************

  __SystemLibrary            = DLib
  __core                     = 430X
  __data_model               = small
  __dlib_file_descriptor     = 1
  __dlib_full_locale_support = 1
  __double_size              = 32
  __pic                      = no
  __reg_r4                   = free
  __reg_r5                   = free
  __rt_version               = 3



                ****************************************
                *                                      *
                *              MODULE MAP              *
                *                                      *
                ****************************************


  DEFINED ABSOLUTE ENTRIES
    *************************************************************************

  DEFINED ABSOLUTE ENTRIES
  PROGRAM MODULE, NAME : ?ABS_ENTRY_MOD

Absolute parts
           ENTRY                   ADDRESS         REF BY
           =====                   =======         ======
           _DATA20_HEAP_SIZE       1000 
           _DATA16_HEAP_SIZE       1000 
           _STACK_SIZE             0100 
    *************************************************************************

  FILE NAME : E:\工程\小个体\程序\samllSamp\Debug\Obj\adc12.r43
  PROGRAM MODULE, NAME : adc12

  SEGMENTS IN THE MODULE
  ======================
DATA16_AN
  Relative segment, address: 0700 - 0701 (0x2 bytes), align: 0
  Segment part 1. ROOT.       Intra module refs:   adcTask
                                                   initAdc
           ENTRY                   ADDRESS         REF BY
           =====                   =======         ======
           _A_ADC12CTL0_L          0700 
           LOCAL                   ADDRESS         
           =====                   =======         
           ADC12CTL0               0700 
           ADC12CTL0_H             0701 
           ADC12CTL0_L             0700 
    -------------------------------------------------------------------------
DATA16_AN
  Relative segment, address: 0702 - 0703 (0x2 bytes), align: 0
  Segment part 2. ROOT.       Intra module refs:   initAdc
           ENTRY                   ADDRESS         REF BY
           =====                   =======         ======
           _A_ADC12CTL1_L          0702 
           LOCAL                   ADDRESS         
           =====                   =======         
           ADC12CTL1               0702 
           ADC12CTL1_H             0703 
           ADC12CTL1_L             0702 
    -------------------------------------------------------------------------
DATA16_AN
  Relative segment, address: 0704 - 0705 (0x2 bytes), align: 0
  Segment part 3. ROOT.       Intra module refs:   initAdc
           ENTRY                   ADDRESS         REF BY
           =====                   =======         ======
           _A_ADC12CTL2_L          0704 
           LOCAL                   ADDRESS         
           =====                   =======         
           ADC12CTL2               0704 
           ADC12CTL2_H             0705 
           ADC12CTL2_L             0704 
    -------------------------------------------------------------------------
DATA16_AN
  Relative segment, address: 070A - 070B (0x2 bytes), align: 0
  Segment part 4. ROOT.       Intra module refs:   adcTask
           ENTRY                   ADDRESS         REF BY
           =====                   =======         ======
           _A_ADC12IFG_L           070A 
           LOCAL                   ADDRESS         
           =====                   =======         
           ADC12IFG                070A 
           ADC12IFG_H              070B 
           ADC12IFG_L              070A 
    -------------------------------------------------------------------------
DATA16_AN
  Relative segment, address: 0720 - 0721 (0x2 bytes), align: 0
  Segment part 5. ROOT.       Intra module refs:   adcTask
           ENTRY                   ADDRESS         REF BY
           =====                   =======         ======
           _A_ADC12MEM0_L          0720 
           LOCAL                   ADDRESS         
           =====                   =======         
           ADC12MEM0               0720 
           ADC12MEM0_H             0721 
           ADC12MEM0_L             0720 
    -------------------------------------------------------------------------
DATA16_AN
  Relative segment, address: 0722 - 0723 (0x2 bytes), align: 0
  Segment part 6. ROOT.       Intra module refs:   adcTask
           ENTRY                   ADDRESS         REF BY
           =====                   =======         ======
           _A_ADC12MEM1_L          0722 
           LOCAL                   ADDRESS         
           =====                   =======         
           ADC12MEM1               0722 
           ADC12MEM1_H             0723 
           ADC12MEM1_L             0722 
    -------------------------------------------------------------------------
DATA16_AN
  Relative segment, address: 0724 - 0725 (0x2 bytes), align: 0
  Segment part 7. ROOT.       Intra module refs:   adcTask
           ENTRY                   ADDRESS         REF BY
           =====                   =======         ======
           _A_ADC12MEM2_L          0724 
           LOCAL                   ADDRESS         
           =====                   =======         
           ADC12MEM2               0724 
           ADC12MEM2_H             0725 
           ADC12MEM2_L             0724 
    -------------------------------------------------------------------------
DATA16_AN
  Relative segment, address: 0726 - 0727 (0x2 bytes), align: 0
  Segment part 8. ROOT.       Intra module refs:   adcTask
           ENTRY                   ADDRESS         REF BY
           =====                   =======         ======
           _A_ADC12MEM3_L          0726 
           LOCAL                   ADDRESS         
           =====                   =======         
           ADC12MEM3               0726 
           ADC12MEM3_H             0727 
           ADC12MEM3_L             0726 
    -------------------------------------------------------------------------
DATA16_AN
  Relative segment, address: 0728 - 0729 (0x2 bytes), align: 0
  Segment part 9. ROOT.       Intra module refs:   adcTask
           ENTRY                   ADDRESS         REF BY
           =====                   =======         ======
           _A_ADC12MEM4_L          0728 
           LOCAL                   ADDRESS         
           =====                   =======         
           ADC12MEM4               0728 
           ADC12MEM4_H             0729 
           ADC12MEM4_L             0728 
    -------------------------------------------------------------------------
DATA16_AN
  Relative segment, address: 072A - 072B (0x2 bytes), align: 0
  Segment part 10. ROOT.      Intra module refs:   adcTask
           ENTRY                   ADDRESS         REF BY
           =====                   =======         ======
           _A_ADC12MEM5_L          072A 
           LOCAL                   ADDRESS         
           =====                   =======         
           ADC12MEM5               072A 
           ADC12MEM5_H             072B 
           ADC12MEM5_L             072A 
    -------------------------------------------------------------------------
DATA16_AN
  Relative segment, address: 0710 - 0710 (0x1 bytes), align: 0
  Segment part 11. ROOT.      Intra module refs:   initAdc
           ENTRY                   ADDRESS         REF BY
           =====                   =======         ======
           ADC12MCTL0              0710 
    -------------------------------------------------------------------------
DATA16_AN
  Relative segment, address: 0711 - 0711 (0x1 bytes), align: 0
  Segment part 12. ROOT.      Intra module refs:   initAdc
           ENTRY                   ADDRESS         REF BY
           =====                   =======         ======
           ADC12MCTL1              0711 
    -------------------------------------------------------------------------
DATA16_AN
  Relative segment, address: 0712 - 0712 (0x1 bytes), align: 0
  Segment part 13. ROOT.      Intra module refs:   initAdc
           ENTRY                   ADDRESS         REF BY
           =====                   =======         ======
           ADC12MCTL2              0712 
    -------------------------------------------------------------------------
DATA16_AN
  Relative segment, address: 0713 - 0713 (0x1 bytes), align: 0
  Segment part 14. ROOT.      Intra module refs:   initAdc
           ENTRY                   ADDRESS         REF BY
           =====                   =======         ======
           ADC12MCTL3              0713 
    -------------------------------------------------------------------------
DATA16_AN
  Relative segment, address: 0714 - 0714 (0x1 bytes), align: 0
  Segment part 15. ROOT.      Intra module refs:   initAdc
           ENTRY                   ADDRESS         REF BY
           =====                   =======         ======
           ADC12MCTL4              0714 
    -------------------------------------------------------------------------
DATA16_AN
  Relative segment, address: 0715 - 0715 (0x1 bytes), align: 0
  Segment part 16. ROOT.      Intra module refs:   initAdc
           ENTRY                   ADDRESS         REF BY
           =====                   =======         ======
           ADC12MCTL5              0715 
    -------------------------------------------------------------------------
DATA16_AN
  Relative segment, address: 0242 - 0243 (0x2 bytes), align: 0
  Segment part 17. ROOT.      Intra module refs:   check (test)
                                                   guiTask (main)
                                                   initAdc
                                                   powerOff (test)
           ENTRY                   ADDRESS         REF BY
           =====                   =======         ======
           _A_PCOUT_L              0242 
           LOCAL                   ADDRESS         
           =====                   =======         
           PCOUT                   0242 
           PCOUT_H                 0243 
           PCOUT_L                 0242 
    -------------------------------------------------------------------------
DATA16_AN
  Relative segment, address: 0244 - 0245 (0x2 bytes), align: 0
  Segment part 18. ROOT.      Intra module refs:   check (test)
                                                   initAdc
                                                   init_Ucs (chip)
           ENTRY                   ADDRESS         REF BY
           =====                   =======         ======
           _A_PCDIR_L              0244 
           LOCAL                   ADDRESS         
           =====                   =======         
           PCDIR                   0244 
           PCDIR_H                 0245 
           PCDIR_L                 0244 
    -------------------------------------------------------------------------
DATA16_AN
  Relative segment, address: 024A - 024B (0x2 bytes), align: 0
  Segment part 19. ROOT.      Intra module refs:   initAdc
                                                   init_Ucs (chip)
           ENTRY                   ADDRESS         REF BY
           =====                   =======         ======
           _A_PCSEL_L              024A 
           LOCAL                   ADDRESS         
           =====                   =======         
           PCSEL                   024A 
           PCSEL_H                 024B 
           PCSEL_L                 024A 
    -------------------------------------------------------------------------
DATA16_AN
  Relative segment, address: 0262 - 0263 (0x2 bytes), align: 0
  Segment part 20. ROOT.      Intra module refs:   initAdc
                                                   write_cmd (lcd)
                                                   write_data (lcd)
           ENTRY                   ADDRESS         REF BY
           =====                   =======         ======
           _A_PDOUT_L              0262 
           LOCAL                   ADDRESS         
           =====                   =======         
           PDOUT                   0262 
           PDOUT_H                 0263 
           PDOUT_L                 0262 
    -------------------------------------------------------------------------
DATA16_AN
  Relative segment, address: 0264 - 0265 (0x2 bytes), align: 0
  Segment part 21. ROOT.      Intra module refs:   initAdc
                                                   init_Lcd (lcd)
           ENTRY                   ADDRESS         REF BY
           =====                   =======         ======
           _A_PDDIR_L              0264 
           LOCAL                   ADDRESS         
           =====                   =======         
           PDDIR                   0264 
           PDDIR_H                 0265 
           PDDIR_L                 0264 
    -------------------------------------------------------------------------
DATA16_AN
  Relative segment, address: 026A - 026B (0x2 bytes), align: 0
  Segment part 22. ROOT.      Intra module refs:   initAdc
                                                   init_Ucs (chip)
           ENTRY                   ADDRESS         REF BY
           =====                   =======         ======
           _A_PDSEL_L              026A 
           LOCAL                   ADDRESS         
           =====                   =======         
           PDSEL                   026A 
           PDSEL_H                 026B 
           PDSEL_L                 026A 
    -------------------------------------------------------------------------
DATA16_N
  Relative segment, address: 1FB8 - 2467 (0x4b0 bytes), align: 1
  Segment part 25.            Intra module refs:   adcTask
                                                   initBuf
           LOCAL                   ADDRESS         
           =====                   =======         
           preBuf                  1FB8 
    -------------------------------------------------------------------------
DATA16_N
  Relative segment, address: 2468 - 265B (0x1f4 bytes), align: 1
  Segment part 26.            Intra module refs:   adcTask
                                                   initBuf
           LOCAL                   ADDRESS         
           =====                   =======         
           smpData                 2468 
    -------------------------------------------------------------------------
DATA16_I
  Relative segment, address: 1C82 - 1C82 (0x1 bytes), align: 0
  Segment part 27.            Intra module refs:   adcTask
           LOCAL                   ADDRESS         
           =====                   =======         
           adcSmpFlag              1C82 
    -------------------------------------------------------------------------
DATA16_Z
  Relative segment, address: 1C84 - 1C85 (0x2 bytes), align: 1
  Segment part 29.            Intra module refs:   adcTask
                                                   getBattery1
           LOCAL                   ADDRESS         
           =====                   =======         
           otherComp               1C84 
    -------------------------------------------------------------------------
DATA16_Z
  Relative segment, address: 1C86 - 1C87 (0x2 bytes), align: 1
  Segment part 30.            Intra module refs:   adcTask
           LOCAL                   ADDRESS         
           =====                   =======         
           preComp                 1C86 
    -------------------------------------------------------------------------
DATA16_Z
  Relative segment, address: 1C88 - 1C8B (0x4 bytes), align: 1
  Segment part 31.            Intra module refs:   adcTask
                                                   getBattery1
           LOCAL                   ADDRESS         
           =====                   =======         
           battery1Sum             1C88 
    -------------------------------------------------------------------------
DATA16_Z
  Relative segment, address: 1C8C - 1C8F (0x4 bytes), align: 1
  Segment part 32.            Intra module refs:   adcTask
                                                   getPAdc
           LOCAL                   ADDRESS         
           =====                   =======         
           presureSum              1C8C 
    -------------------------------------------------------------------------
DATA16_Z
  Relative segment, address: 1C90 - 1C93 (0x4 bytes), align: 1
  Segment part 33.            Intra module refs:   adcTask
           LOCAL                   ADDRESS         
           =====                   =======         
           DQSum                   1C90 
    -------------------------------------------------------------------------
DATA16_Z
  Relative segment, address: 1C94 - 1C97 (0x4 bytes), align: 1
  Segment part 34.            Intra module refs:   adcTask
           LOCAL                   ADDRESS         
           =====                   =======         
           battery2Sum             1C94 
    -------------------------------------------------------------------------
DATA16_Z
  Relative segment, address: 1C98 - 1C9B (0x4 bytes), align: 1
  Segment part 35.            Intra module refs:   adcTask
           LOCAL                   ADDRESS         
           =====                   =======         
           tempSum                 1C98 
    -------------------------------------------------------------------------
DATA16_Z
  Relative segment, address: 1C9C - 1C9F (0x4 bytes), align: 1
  Segment part 36.            Intra module refs:   adcTask
           LOCAL                   ADDRESS         
           =====                   =======         
           chargeCurSum            1C9C 
    -------------------------------------------------------------------------
DATA16_Z
  Relative segment, address: 1CA0 - 1CA1 (0x2 bytes), align: 1
  Segment part 37.            Intra module refs:   adcTask
                                                   getBattery1
           LOCAL                   ADDRESS         
           =====                   =======         
           battery1                1CA0 
    -------------------------------------------------------------------------
DATA16_Z
  Relative segment, address: 1CA2 - 1CA3 (0x2 bytes), align: 1
  Segment part 38.            Intra module refs:   adcTask
           LOCAL                   ADDRESS         
           =====                   =======         
           DQ                      1CA2 
    -------------------------------------------------------------------------
DATA16_Z
  Relative segment, address: 1CA4 - 1CA5 (0x2 bytes), align: 1
  Segment part 39.            Intra module refs:   adcTask
           LOCAL                   ADDRESS         
           =====                   =======         
           battery2                1CA4 
    -------------------------------------------------------------------------
DATA16_Z
  Relative segment, address: 1CA6 - 1CA7 (0x2 bytes), align: 1
  Segment part 40.            Intra module refs:   adcTask
           LOCAL                   ADDRESS         
           =====                   =======         
           temp                    1CA6 
    -------------------------------------------------------------------------
DATA16_Z
  Relative segment, address: 1CA8 - 1CA9 (0x2 bytes), align: 1
  Segment part 41.            Intra module refs:   adcTask
           LOCAL                   ADDRESS         
           =====                   =======         
           chargeCurrent           1CA8 
    -------------------------------------------------------------------------
<CODE> 2 (was CODE)
  Relative segment, address: 00029B7C - 00029BE3 (0x68 bytes), align: 1
  Segment part 43.            Intra module refs:   adcTask
           ENTRY                   ADDRESS         REF BY
           =====                   =======         ======
           initBuf                 00029B7C 
               CSTACK = 00000000 ( 00000004 )
    -------------------------------------------------------------------------
<CODE> 2 (was CODE)
  Relative segment, address: 0002A078 - 0002A0D1 (0x5a bytes), align: 1
  Segment part 42.            Intra module refs:   adcTask
           ENTRY                   ADDRESS         REF BY
           =====                   =======         ======
           initAdc                 0002A078 
               CSTACK = 00000000 ( 00000004 )
    -------------------------------------------------------------------------
<CODE> 2 (was CODE)
  Relative segment, address: 0002B1E8 - 0002B20B (0x24 bytes), align: 1
  Segment part 52.
           ENTRY                   ADDRESS         REF BY
           =====                   =======         ======
           getPAdc                 0002B1E8        calcuTask (pump)
                                                   pumpLoop (pump)
               CSTACK = 00000000 ( 00000006 )
    -------------------------------------------------------------------------
<CODE> 2 (was CODE)
  Relative segment, address: 0002B0DE - 0002B105 (0x28 bytes), align: 1
  Segment part 49.
           ENTRY                   ADDRESS         REF BY
           =====                   =======         ======
           getBattery1             0002B0DE        charge (charger)
               CSTACK = 00000000 ( 00000006 )
    -------------------------------------------------------------------------
<CODE> 2 (was CODE)
  Relative segment, address: 0001C71A - 0001C9ED (0x2d4 bytes), align: 1
  Segment part 44.
           ENTRY                   ADDRESS         REF BY
           =====                   =======         ======
           adcTask                 0001C71A        main (main)
               calls direct
               CSTACK = 00000000 ( 00000018 )
    -------------------------------------------------------------------------
DATA16_ID
  Relative segment, address: 83D0 - 83D0 (0x1 bytes), align: 0
  Segment part 28.            Intra module refs:   adcSmpFlag

    *************************************************************************

  FILE NAME : E:\工程\小个体\程序\samllSamp\Debug\Obj\charger.r43
  PROGRAM MODULE, NAME : charger

  SEGMENTS IN THE MODULE
  ======================
DATA16_AN
  Relative segment, address: 0240 - 0241 (0x2 bytes), align: 0
  Segment part 1. ROOT.
           ENTRY                   ADDRESS         REF BY
           =====                   =======         ======
           _A_PCIN_L               0240 
           LOCAL                   ADDRESS         
           =====                   =======         
           PCIN                    0240 
           PCIN_H                  0241 
           PCIN_L                  0240 
    -------------------------------------------------------------------------
DATA16_Z
  Relative segment, address: 1CAA - 1CAB (0x2 bytes), align: 1
  Segment part 4.             Intra module refs:   isCharge
           LOCAL                   ADDRESS         
           =====                   =======         
           isChargeFlag            1CAA 
    -------------------------------------------------------------------------
DATA16_I
  Relative segment, address: 1C00 - 1C01 (0x2 bytes), align: 1
  Segment part 5.             Intra module refs:   charge
                                                   getBatLev
           LOCAL                   ADDRESS         
           =====                   =======         
           batLevel                1C00 
    -------------------------------------------------------------------------
DATA16_Z
  Relative segment, address: 1CAC - 1CAD (0x2 bytes), align: 1
  Segment part 7.             Intra module refs:   isCharge
           LOCAL                   ADDRESS         
           =====                   =======         
           chargeStatus            1CAC 
    -------------------------------------------------------------------------
<CODE> 2 (was CODE)
  Relative segment, address: 0002B64A - 0002B64F (0x6 bytes), align: 1
  Segment part 12.
           ENTRY                   ADDRESS         REF BY
           =====                   =======         ======
           getBatLev               0002B64A        disply_result (test)
                                                   guiExec (display)
               CSTACK = 00000000 ( 00000004 )
    -------------------------------------------------------------------------
<CODE> 2 (was CODE)
  Relative segment, address: 0002B4EE - 0002B4FF (0x12 bytes), align: 1
  Segment part 11.
           ENTRY                   ADDRESS         REF BY
           =====                   =======         ======
           isCharge                0002B4EE        batShow (display)
               CSTACK = 00000000 ( 00000004 )
    -------------------------------------------------------------------------
<CODE> 2 (was CODE)
  Relative segment, address: 0002A796 - 0002A7D7 (0x42 bytes), align: 1
  Segment part 8.
           ENTRY                   ADDRESS         REF BY
           =====                   =======         ======
           charge                  0002A796        guiExec (display)
                                                   newGui (display)
               calls direct
               CSTACK = 00000000 ( 00000006 )
    -------------------------------------------------------------------------
DATA16_ID
  Relative segment, address: 834E - 834F (0x2 bytes), align: 1
  Segment part 6.             Intra module refs:   batLevel

    *************************************************************************

  FILE NAME : E:\工程\小个体\程序\samllSamp\Debug\Obj\chip.r43
  PROGRAM MODULE, NAME : chip

  SEGMENTS IN THE MODULE
  ======================
DATA16_AN
  Relative segment, address: 0102 - 0103 (0x2 bytes), align: 0
  Segment part 4. ROOT.       Intra module refs:   init_Ucs
           ENTRY                   ADDRESS         REF BY
           =====                   =======         ======
           _A_SFRIFG1_L            0102 
           LOCAL                   ADDRESS         
           =====                   =======         
           SFRIFG1                 0102 
           SFRIFG1_H               0103 
           SFRIFG1_L               0102 
    -------------------------------------------------------------------------
DATA16_AN
  Relative segment, address: 016C - 016D (0x2 bytes), align: 0
  Segment part 5. ROOT.       Intra module refs:   init_Ucs
           ENTRY                   ADDRESS         REF BY
           =====                   =======         ======
           _A_UCSCTL6_L            016C 
           LOCAL                   ADDRESS         
           =====                   =======         
           UCSCTL6                 016C 
           UCSCTL6_H               016D 
           UCSCTL6_L               016C 
    -------------------------------------------------------------------------
DATA16_AN
  Relative segment, address: 016E - 016F (0x2 bytes), align: 0
  Segment part 6. ROOT.       Intra module refs:   init_Ucs
           ENTRY                   ADDRESS         REF BY
           =====                   =======         ======
           _A_UCSCTL7_L            016E 
           LOCAL                   ADDRESS         
           =====                   =======         
           UCSCTL7                 016E 
           UCSCTL7_H               016F 
           UCSCTL7_L               016E 
    -------------------------------------------------------------------------
<CODE> 2 (was CODE)
  Relative segment, address: 0002A17E - 0002A1D1 (0x54 bytes), align: 1
  Segment part 9.
           ENTRY                   ADDRESS         REF BY
           =====                   =======         ======
           init_Ucs                0002A17E        main (main)
               CSTACK = 00000000 ( 00000004 )

    *************************************************************************

  FILE NAME : E:\工程\小个体\程序\samllSamp\Debug\Obj\clock.r43
  PROGRAM MODULE, NAME : clock

  SEGMENTS IN THE MODULE
  ======================
DATA16_AN
  Relative segment, address: 0340 - 0341 (0x2 bytes), align: 0
  Segment part 1. ROOT.       Intra module refs:   initClock
           ENTRY                   ADDRESS         REF BY
           =====                   =======         ======
           _A_TA0CTL_L             0340 
           LOCAL                   ADDRESS         
           =====                   =======         
           TA0CTL                  0340 
           TA0CTL_H                0341 
           TA0CTL_L                0340 
    -------------------------------------------------------------------------
DATA16_AN
  Relative segment, address: 0342 - 0343 (0x2 bytes), align: 0
  Segment part 2. ROOT.       Intra module refs:   initClock
           ENTRY                   ADDRESS         REF BY
           =====                   =======         ======
           _A_TA0CCTL0_L           0342 
           LOCAL                   ADDRESS         
           =====                   =======         
           TA0CCTL0                0342 
           TA0CCTL0_H              0343 
           TA0CCTL0_L              0342 
    -------------------------------------------------------------------------
DATA16_AN
  Relative segment, address: 0352 - 0353 (0x2 bytes), align: 0
  Segment part 3. ROOT.       Intra module refs:   initClock
           ENTRY                   ADDRESS         REF BY
           =====                   =======         ======
           _A_TA0CCR0_L            0352 
           LOCAL                   ADDRESS         
           =====                   =======         
           TA0CCR0                 0352 
           TA0CCR0_H               0353 
           TA0CCR0_L               0352 
    -------------------------------------------------------------------------
<CODE> 2 (was CODE)
  Relative segment, address: 0002B2F4 - 0002B30D (0x1a bytes), align: 1
  Segment part 8.
           ENTRY                   ADDRESS         REF BY
           =====                   =======         ======
           initClock               0002B2F4        main (main)
               CSTACK = 00000000 ( 00000004 )
    -------------------------------------------------------------------------
ISR_CODE
  Relative segment, address: 5C28 - 5C3F (0x18 bytes), align: 1
  Segment part 9.             Intra module refs:   timerA0::??INTVEC 108
           ENTRY                   ADDRESS         REF BY
           =====                   =======         ======
           timerA0                 5C28 
               interrupt function
               calls direct
               CSTACK = 00000000 ( 0000000C )
    -------------------------------------------------------------------------
<CODE> 2 (was CODE)
  Relative segment, address: 00028E72 - 00028EFF (0x8e bytes), align: 1
  Segment part 7.             Intra module refs:   timerA0
           ENTRY                   ADDRESS         REF BY
           =====                   =======         ======
           tickIsr                 00028E72 
               CSTACK = 00000000 ( 00000004 )
    -------------------------------------------------------------------------
INTVEC
  Common segment, address: FF80 - FFED (0x6e bytes), align: 1
  Segment part 4. ROOT.
           ENTRY                   ADDRESS         REF BY
           =====                   =======         ======
           timerA0::??INTVEC 108   FFEC 

    *************************************************************************

  FILE NAME : E:\工程\小个体\程序\samllSamp\Debug\Obj\display.r43
  PROGRAM MODULE, NAME : display

  SEGMENTS IN THE MODULE
  ======================
DATA16_C
  Relative segment, address: 6D86 - 6D8D (0x8 bytes), align: 0
  Segment part 2.             Intra module refs:   Segment part 261
    -------------------------------------------------------------------------
DATA16_C
  Relative segment, address: 6D8E - 6D96 (0x9 bytes), align: 0
  Segment part 3.             Intra module refs:   Segment part 261
    -------------------------------------------------------------------------
DATA16_C
  Relative segment, address: 6D97 - 6D9F (0x9 bytes), align: 0
  Segment part 4.             Intra module refs:   Segment part 261
    -------------------------------------------------------------------------
DATA16_C
  Relative segment, address: 6DA0 - 6DA8 (0x9 bytes), align: 0
  Segment part 5.             Intra module refs:   Segment part 261
    -------------------------------------------------------------------------
DATA16_C
  Relative segment, address: 6DA9 - 6DAE (0x6 bytes), align: 0
  Segment part 6.             Intra module refs:   Segment part 261
    -------------------------------------------------------------------------
DATA16_C
  Relative segment, address: 6DAF - 6DB7 (0x9 bytes), align: 0
  Segment part 7.             Intra module refs:   Segment part 261
    -------------------------------------------------------------------------
DATA16_C
  Relative segment, address: 6DB8 - 6DBC (0x5 bytes), align: 0
  Segment part 8.             Intra module refs:   Segment part 261
                                                   cylParaSetMenuOnDown
                                                   cylParaSetMenuOnUp
                                                   cylParaSetMenuShow
                                                   cylViewMenuOnDown
                                                   cylViewMenuOnUp
                                                   cylViewMenuShow
                                                   cylViewSetMenuShow
                                                   cylViewStatusMenuShow
                                                   groupParaSetMenuOnDown
                                                   groupParaSetMenuOnUp
                                                   groupParaSetMenuShow
                                                   groupSetMenuOnDown
                                                   groupSetMenuOnLeft
                                                   groupSetMenuOnRight
                                                   groupSetMenuOnUp
                                                   groupSetMenuShow
                                                   timePowerOffSetMenuOnDown
                                                   timePowerOffSetMenuOnUp
                                                   timePowerOffSetMenuShow
                                                   timeViewMenuOnDown
                                                   timeViewMenuOnUp
                                                   timeViewMenuShow
                                                   timeViewSetMenuShow
                                                   timeViewStatusMenuOnDown
                                                   timeViewStatusMenuOnUp
                                                   timeViewStatusMenuShow
                                                   twoErrMenuShow
    -------------------------------------------------------------------------
DATA16_C
  Relative segment, address: 6DBD - 6DC5 (0x9 bytes), align: 0
  Segment part 9.             Intra module refs:   Segment part 263
    -------------------------------------------------------------------------
DATA16_C
  Relative segment, address: 6DC6 - 6DCE (0x9 bytes), align: 0
  Segment part 10.            Intra module refs:   Segment part 263
    -------------------------------------------------------------------------
DATA16_C
  Relative segment, address: 6DCF - 6DD7 (0x9 bytes), align: 0
  Segment part 11.            Intra module refs:   Segment part 263
    -------------------------------------------------------------------------
DATA16_C
  Relative segment, address: 6DD8 - 6DE0 (0x9 bytes), align: 0
  Segment part 12.            Intra module refs:   Segment part 263
    -------------------------------------------------------------------------
DATA16_C
  Relative segment, address: 6DE1 - 6DE9 (0x9 bytes), align: 0
  Segment part 13.            Intra module refs:   Segment part 263
    -------------------------------------------------------------------------
DATA16_C
  Relative segment, address: 6DEA - 6DF2 (0x9 bytes), align: 0
  Segment part 14.            Intra module refs:   Segment part 263
                                                   calibrateFlowMenuShow
    -------------------------------------------------------------------------
DATA16_C
  Relative segment, address: 6DF3 - 6DFB (0x9 bytes), align: 0
  Segment part 15.            Intra module refs:   Segment part 263
    -------------------------------------------------------------------------
DATA16_C
  Relative segment, address: 6DFC - 6E06 (0xb bytes), align: 0
  Segment part 16.            Intra module refs:   errorMenuShow
    -------------------------------------------------------------------------
DATA16_C
  Relative segment, address: 6E07 - 6E09 (0x3 bytes), align: 0
  Segment part 17.            Intra module refs:   errorMenuLeft
                                                   errorMenuShow
                                                   groupSetMenuOnDown
                                                   groupSetMenuOnLeft
                                                   groupSetMenuOnRight
                                                   groupSetMenuOnUp
                                                   groupSetMenuShow
                                                   powerTimeSetMenuShow
                                                   smpTimeWarnMenuShow
                                                   twoErrMenuShow
    -------------------------------------------------------------------------
DATA16_C
  Relative segment, address: 6E0A - 6E10 (0x7 bytes), align: 0
  Segment part 18.            Intra module refs:   errorMenuShow
    -------------------------------------------------------------------------
DATA16_C
  Relative segment, address: 6E11 - 6E15 (0x5 bytes), align: 0
  Segment part 19.            Intra module refs:   CwarnStopMenuOnLeft
                                                   CwarnStopMenuOnRight
                                                   CwarnStopMenuShow
                                                   MwarnStopMenuOnLeft
                                                   MwarnStopMenuOnRight
                                                   MwarnStopMenuShow
                                                   TwarnStopMenuOnLeft
                                                   TwarnStopMenuOnRight
                                                   TwarnStopMenuShow
                                                   clewMenuOnLeft
                                                   clewMenuOnRight
                                                   clewMenuShow
                                                   cylCyclesSetMenuOnLeft
                                                   cylCyclesSetMenuOnRight
                                                   cylCyclesSetMenuShow
                                                   cylDelaySetMenuOnLeft
                                                   cylDelaySetMenuOnRight
                                                   cylDelaySetMenuShow
                                                   cylSmpTimeSetMenuOnLeft
                                                   cylSmpTimeSetMenuOnRight
                                                   cylSmpTimeSetMenuShow
                                                   errFlowMenuShow
                                                   errorMenuLeft
                                                   errorMenuShow
                                                   flowSetLeft
                                                   flowSetRight
                                                   flowSetShow
                                                   groupSetMenuOnDown
                                                   groupSetMenuOnLeft
                                                   groupSetMenuOnRight
                                                   groupSetMenuOnUp
                                                   groupSetMenuShow
                                                   groupWarnMenuShow
                                                   groupWorkTimeSetMenuOnDown
                                                   groupWorkTimeSetMenuOnLeft
                                                   groupWorkTimeSetMenuOnRight
                                                   groupWorkTimeSetMenuOnUp
                                                   groupWorkTimeSetMenuShow
                                                   inputNumberMenuOnLeft
                                                   inputNumberMenuOnRight
                                                   inputNumberMenuShow
                                                   languageSetMenuOnDown
                                                   languageSetMenuOnLeft
                                                   languageSetMenuOnRight
                                                   languageSetMenuOnUp
                                                   languageSetMenuShow
                                                   modSetMenuOnDown
                                                   modSetMenuOnLeft
                                                   modSetMenuOnRight
                                                   modSetMenuOnUp
                                                   modSetMenuShow
                                                   powerTimeSetMenuOnLeft
                                                   powerTimeSetMenuOnRight
                                                   powerTimeSetMenuShow
                                                   smpTimeMenuOnLeft
                                                   smpTimeMenuOnRight
                                                   smpTimeMenuShow
                                                   smpTimeWarnMenuShow
                                                   sysTimeSetMenuOnLeft
                                                   sysTimeSetMenuOnRight
                                                   sysTimeSetMenuShow
                                                   twoErrMenuShow
    -------------------------------------------------------------------------
DATA16_C
  Relative segment, address: 6E16 - 6E1F (0xa bytes), align: 0
  Segment part 20.            Intra module refs:   CwarnStopMenuShow
                                                   MwarnStopMenuShow
                                                   TwarnStopMenuShow
                                                   errFlowMenuShow
                                                   errorMenuShow
                                                   groupWarnMenuShow
                                                   smpTimeWarnMenuShow
                                                   twoErrMenuShow
    -------------------------------------------------------------------------
DATA16_C
  Relative segment, address: 6E20 - 6E33 (0x14 bytes), align: 0
  Segment part 21.            Intra module refs:   errorMenuShow
    -------------------------------------------------------------------------
DATA16_C
  Relative segment, address: 6E34 - 6E47 (0x14 bytes), align: 0
  Segment part 22.            Intra module refs:   errorMenuShow
    -------------------------------------------------------------------------
DATA16_C
  Relative segment, address: 6E48 - 6E4B (0x4 bytes), align: 0
  Segment part 23.            Intra module refs:   CwarnStopMenuOnLeft
                                                   CwarnStopMenuOnRight
                                                   CwarnStopMenuShow
                                                   MwarnStopMenuOnLeft
                                                   MwarnStopMenuOnRight
                                                   MwarnStopMenuShow
                                                   TwarnStopMenuOnLeft
                                                   TwarnStopMenuOnRight
                                                   TwarnStopMenuShow
                                                   cylCyclesSetMenuOnLeft
                                                   cylCyclesSetMenuOnRight
                                                   cylCyclesSetMenuShow
                                                   cylDelaySetMenuOnLeft
                                                   cylDelaySetMenuOnRight
                                                   cylDelaySetMenuShow
                                                   cylSmpTimeSetMenuOnLeft
                                                   cylSmpTimeSetMenuOnRight
                                                   cylSmpTimeSetMenuShow
                                                   errorMenuLeft
                                                   errorMenuShow
                                                   flowSetLeft
                                                   flowSetRight
                                                   flowSetShow
                                                   groupWorkTimeSetMenuOnLeft
                                                   groupWorkTimeSetMenuOnRight
                                                   groupWorkTimeSetMenuShow
                                                   languageSetMenuOnDown
                                                   languageSetMenuOnLeft
                                                   languageSetMenuOnRight
                                                   languageSetMenuOnUp
                                                   languageSetMenuShow
                                                   modSetMenuOnDown
                                                   modSetMenuOnLeft
                                                   modSetMenuOnRight
                                                   modSetMenuOnUp
                                                   modSetMenuShow
                                                   powerTimeSetMenuOnLeft
                                                   powerTimeSetMenuOnRight
                                                   powerTimeSetMenuShow
                                                   sysTimeSetMenuOnLeft
                                                   sysTimeSetMenuOnRight
                                                   sysTimeSetMenuShow
    -------------------------------------------------------------------------
DATA16_C
  Relative segment, address: 6E4C - 6E50 (0x5 bytes), align: 0
  Segment part 24.            Intra module refs:   CwarnStopMenuShow
                                                   MwarnStopMenuShow
                                                   TwarnStopMenuShow
                                                   errFlowMenuShow
                                                   errorMenuShow
                                                   groupWarnMenuShow
                                                   smpTimeWarnMenuShow
                                                   twoErrMenuShow
    -------------------------------------------------------------------------
DATA16_C
  Relative segment, address: 6E51 - 6E5F (0xf bytes), align: 0
  Segment part 25.            Intra module refs:   errorMenuShow
    -------------------------------------------------------------------------
DATA16_C
  Relative segment, address: 6E60 - 6E6A (0xb bytes), align: 0
  Segment part 26.            Intra module refs:   errorMenuShow
    -------------------------------------------------------------------------
DATA16_C
  Relative segment, address: 6E6B - 6E77 (0xd bytes), align: 0
  Segment part 27.            Intra module refs:   errorMenuShow
    -------------------------------------------------------------------------
DATA16_C
  Relative segment, address: 6E78 - 6E82 (0xb bytes), align: 0
  Segment part 28.            Intra module refs:   errorMenuShow
    -------------------------------------------------------------------------
DATA16_C
  Relative segment, address: 6E83 - 6E87 (0x5 bytes), align: 0
  Segment part 29.            Intra module refs:   CwarnStopMenuOnLeft
                                                   CwarnStopMenuOnRight
                                                   CwarnStopMenuShow
                                                   MwarnStopMenuOnLeft
                                                   MwarnStopMenuOnRight
                                                   MwarnStopMenuShow
                                                   TwarnStopMenuOnLeft
                                                   TwarnStopMenuOnRight
                                                   TwarnStopMenuShow
                                                   clewMenuOnLeft
                                                   clewMenuOnRight
                                                   clewMenuShow
                                                   cylCyclesSetMenuOnLeft
                                                   cylCyclesSetMenuOnRight
                                                   cylCyclesSetMenuShow
                                                   cylDelaySetMenuOnLeft
                                                   cylDelaySetMenuOnRight
                                                   cylDelaySetMenuShow
                                                   cylSmpTimeSetMenuOnLeft
                                                   cylSmpTimeSetMenuOnRight
                                                   cylSmpTimeSetMenuShow
                                                   errorMenuLeft
                                                   errorMenuShow
                                                   flowSetLeft
                                                   flowSetRight
                                                   flowSetShow
                                                   groupWorkTimeSetMenuOnLeft
                                                   groupWorkTimeSetMenuOnRight
                                                   groupWorkTimeSetMenuShow
                                                   inputNumberMenuOnLeft
                                                   inputNumberMenuOnRight
                                                   inputNumberMenuShow
                                                   languageSetMenuOnDown
                                                   languageSetMenuOnLeft
                                                   languageSetMenuOnRight
                                                   languageSetMenuOnUp
                                                   languageSetMenuShow
                                                   modSetMenuOnDown
                                                   modSetMenuOnLeft
                                                   modSetMenuOnRight
                                                   modSetMenuOnUp
                                                   modSetMenuShow
                                                   powerTimeSetMenuOnLeft
                                                   powerTimeSetMenuOnRight
                                                   powerTimeSetMenuShow
                                                   sysTimeSetMenuOnLeft
                                                   sysTimeSetMenuOnRight
                                                   sysTimeSetMenuShow
    -------------------------------------------------------------------------
DATA16_C
  Relative segment, address: 6E88 - 6E98 (0x11 bytes), align: 0
  Segment part 30.            Intra module refs:   twoErrMenuShow
    -------------------------------------------------------------------------
DATA16_C
  Relative segment, address: 6E99 - 6EAC (0x14 bytes), align: 0
  Segment part 31.            Intra module refs:   twoErrMenuShow
    -------------------------------------------------------------------------
DATA16_C
  Relative segment, address: 6EAD - 6EBB (0xf bytes), align: 0
  Segment part 32.            Intra module refs:   twoErrMenuShow
    -------------------------------------------------------------------------
DATA16_C
  Relative segment, address: 6EBC - 6EC8 (0xd bytes), align: 0
  Segment part 33.            Intra module refs:   twoErrMenuShow
    -------------------------------------------------------------------------
DATA16_C
  Relative segment, address: 6EC9 - 6ECD (0x5 bytes), align: 0
  Segment part 34.            Intra module refs:   cylParaSetMenuOnDown
                                                   cylParaSetMenuOnUp
                                                   cylParaSetMenuShow
                                                   cylViewMenuOnDown
                                                   cylViewMenuOnUp
                                                   cylViewMenuShow
                                                   cylViewSetMenuShow
                                                   cylViewStatusMenuShow
                                                   groupParaSetMenuOnDown
                                                   groupParaSetMenuOnUp
                                                   groupParaSetMenuShow
                                                   groupSetMenuOnDown
                                                   groupSetMenuOnLeft
                                                   groupSetMenuOnRight
                                                   groupSetMenuOnUp
                                                   groupSetMenuShow
                                                   timePowerOffSetMenuOnDown
                                                   timePowerOffSetMenuOnUp
                                                   timePowerOffSetMenuShow
                                                   timeViewMenuOnDown
                                                   timeViewMenuOnUp
                                                   timeViewMenuShow
                                                   timeViewSetMenuShow
                                                   timeViewStatusMenuOnDown
                                                   timeViewStatusMenuOnUp
                                                   timeViewStatusMenuShow
                                                   twoErrMenuShow
    -------------------------------------------------------------------------
DATA16_C
  Relative segment, address: 6ECE - 6EE0 (0x13 bytes), align: 0
  Segment part 35.            Intra module refs:   twoErrMenuShow
    -------------------------------------------------------------------------
DATA16_C
  Relative segment, address: 6EE1 - 6EE3 (0x3 bytes), align: 0
  Segment part 36.            Intra module refs:   CwarnStopMenuOnLeft
                                                   CwarnStopMenuOnRight
                                                   CwarnStopMenuShow
                                                   MwarnStopMenuOnLeft
                                                   MwarnStopMenuOnRight
                                                   MwarnStopMenuShow
                                                   TwarnStopMenuOnLeft
                                                   TwarnStopMenuOnRight
                                                   TwarnStopMenuShow
                                                   cylCyclesSetMenuOnLeft
                                                   cylCyclesSetMenuOnRight
                                                   cylCyclesSetMenuShow
                                                   cylDelaySetMenuOnLeft
                                                   cylDelaySetMenuOnRight
                                                   cylDelaySetMenuShow
                                                   cylSmpTimeSetMenuOnLeft
                                                   cylSmpTimeSetMenuOnRight
                                                   cylSmpTimeSetMenuShow
                                                   errFlowMenuShow
                                                   flowSetLeft
                                                   flowSetRight
                                                   flowSetShow
                                                   groupWarnMenuShow
                                                   groupWorkTimeSetMenuOnDown
                                                   groupWorkTimeSetMenuOnLeft
                                                   groupWorkTimeSetMenuOnRight
                                                   groupWorkTimeSetMenuOnUp
                                                   groupWorkTimeSetMenuShow
                                                   languageSetMenuOnDown
                                                   languageSetMenuOnLeft
                                                   languageSetMenuOnRight
                                                   languageSetMenuOnUp
                                                   languageSetMenuShow
                                                   modSetMenuOnDown
                                                   modSetMenuOnLeft
                                                   modSetMenuOnRight
                                                   modSetMenuOnUp
                                                   modSetMenuShow
                                                   powerTimeSetMenuOnLeft
                                                   powerTimeSetMenuOnRight
                                                   smpTimeMenuOnLeft
                                                   smpTimeMenuOnRight
                                                   smpTimeMenuShow
                                                   sysTimeSetMenuOnLeft
                                                   sysTimeSetMenuOnRight
                                                   sysTimeSetMenuShow
                                                   twoErrMenuShow
    -------------------------------------------------------------------------
DATA16_C
  Relative segment, address: 6EE4 - 6EFB (0x18 bytes), align: 0
  Segment part 37.            Intra module refs:   twoErrMenuShow
    -------------------------------------------------------------------------
DATA16_C
  Relative segment, address: 6EFC - 6F14 (0x19 bytes), align: 0
  Segment part 38.            Intra module refs:   twoErrMenuShow
    -------------------------------------------------------------------------
DATA16_C
  Relative segment, address: 6F15 - 6F1D (0x9 bytes), align: 0
  Segment part 39.            Intra module refs:   twoErrMenuShow
    -------------------------------------------------------------------------
DATA16_C
  Relative segment, address: 6F1E - 6F2E (0x11 bytes), align: 0
  Segment part 40.            Intra module refs:   twoErrMenuShow
    -------------------------------------------------------------------------
DATA16_C
  Relative segment, address: 6F2F - 6F41 (0x13 bytes), align: 0
  Segment part 41.            Intra module refs:   twoErrMenuShow
    -------------------------------------------------------------------------
DATA16_C
  Relative segment, address: 6F42 - 6F46 (0x5 bytes), align: 0
  Segment part 42.            Intra module refs:   allSetMenuShow
                                                   calibrateFlowMenuShow
                                                   cylCyclesSetMenuShow
                                                   cylDelaySetMenuShow
                                                   cylParaSetMenuShow
                                                   cylSmpTimeSetMenuShow
                                                   cylStartMenuShow
                                                   flowSetShow
                                                   groupParaSetMenuShow
                                                   groupSetMenuShow
                                                   languageSetMenuShow
                                                   manuStartMenuShow
                                                   modSetMenuShow
                                                   powerTimeSetMenuShow
                                                   sysTimeSetMenuShow
                                                   timePowerOffSetMenuOnDown
                                                   timePowerOffSetMenuOnUp
                                                   timePowerOffSetMenuShow
                                                   timeStartMenuShow
                                                   topCylMenuShow
                                                   topManuMenuShow
                                                   topTimeMenuShow
    -------------------------------------------------------------------------
DATA16_C
  Relative segment, address: 6F47 - 6F4C (0x6 bytes), align: 0
  Segment part 43.            Intra module refs:   cylStartMenuShow
                                                   manuStartMenuShow
                                                   topCylMenuShow
                                                   topManuMenuShow
    -------------------------------------------------------------------------
DATA16_C
  Relative segment, address: 6F4D - 6F51 (0x5 bytes), align: 0
  Segment part 44.            Intra module refs:   cylStartMenuShow
                                                   manuStartMenuShow
                                                   timeStartMenuShow
                                                   topCylMenuShow
                                                   topManuMenuShow
                                                   topTimeMenuShow
    -------------------------------------------------------------------------
DATA16_C
  Relative segment, address: 6F52 - 6F5D (0xc bytes), align: 0
  Segment part 45.            Intra module refs:   cylStartMenuShow
                                                   manuStartMenuShow
                                                   timeStartMenuShow
                                                   topCylMenuShow
                                                   topManuMenuShow
                                                   topTimeMenuShow
    -------------------------------------------------------------------------
DATA16_C
  Relative segment, address: 6F5E - 6F62 (0x5 bytes), align: 0
  Segment part 46.            Intra module refs:   allSetMenuShow
                                                   manuStartMenuShow
                                                   topCylMenuShow
                                                   topManuMenuShow
                                                   topTimeMenuShow
    -------------------------------------------------------------------------
DATA16_C
  Relative segment, address: 6F63 - 6F66 (0x4 bytes), align: 0
  Segment part 47.            Intra module refs:   allSetMenuShow
                                                   cylSmpTimeSetMenuOnLeft
                                                   cylSmpTimeSetMenuOnRight
                                                   cylSmpTimeSetMenuShow
                                                   timeStartMenuShow
                                                   topCylMenuShow
                                                   topManuMenuShow
                                                   topTimeMenuShow
    -------------------------------------------------------------------------
DATA16_C
  Relative segment, address: 6F67 - 6F6A (0x4 bytes), align: 0
  Segment part 48.            Intra module refs:   allSetMenuShow
                                                   cylStartMenuShow
                                                   topCylMenuShow
                                                   topManuMenuShow
                                                   topTimeMenuShow
    -------------------------------------------------------------------------
DATA16_C
  Relative segment, address: 6F6B - 6F6C (0x2 bytes), align: 0
  Segment part 49.            Intra module refs:   topCylMenuOnDown
                                                   topCylMenuOnUp
                                                   topCylMenuShow
                                                   topManuMenuOnDown
                                                   topManuMenuOnUp
                                                   topManuMenuShow
                                                   topTimeMenuOnDown
                                                   topTimeMenuOnUp
                                                   topTimeMenuShow
    -------------------------------------------------------------------------
DATA16_C
  Relative segment, address: 6F6D - 6F71 (0x5 bytes), align: 0
  Segment part 50.            Intra module refs:   manuStartMenuOnDown
                                                   manuStartMenuOnUp
                                                   manuStartMenuShow
                                                   topManuMenuOnDown
                                                   topManuMenuOnUp
                                                   topManuMenuShow
    -------------------------------------------------------------------------
DATA16_C
  Relative segment, address: 6F72 - 6F73 (0x2 bytes), align: 0
  Segment part 51.            Intra module refs:   manuStartMenuOnDown
                                                   manuStartMenuOnUp
                                                   manuStartMenuShow
                                                   topManuMenuOnDown
                                                   topManuMenuOnUp
                                                   topManuMenuShow
    -------------------------------------------------------------------------
DATA16_C
  Relative segment, address: 6F74 - 6F77 (0x4 bytes), align: 0
  Segment part 52.            Intra module refs:   cylStartMenuOnDown
                                                   cylStartMenuOnUp
                                                   cylStartMenuShow
                                                   manuStartMenuOnDown
                                                   manuStartMenuOnUp
                                                   manuStartMenuShow
                                                   timeStartMenuOnDown
                                                   timeStartMenuOnUp
                                                   timeStartMenuShow
                                                   topCylMenuOnDown
                                                   topCylMenuOnUp
                                                   topCylMenuShow
                                                   topManuMenuOnDown
                                                   topManuMenuOnUp
                                                   topManuMenuShow
                                                   topTimeMenuOnDown
                                                   topTimeMenuOnUp
                                                   topTimeMenuShow
    -------------------------------------------------------------------------
DATA16_C
  Relative segment, address: 6F78 - 6F7C (0x5 bytes), align: 0
  Segment part 53.            Intra module refs:   cylStartMenuShow
                                                   manuStartMenuShow
                                                   timeStartMenuShow
                                                   topCylMenuShow
                                                   topManuMenuShow
                                                   topTimeMenuShow
    -------------------------------------------------------------------------
DATA16_C
  Relative segment, address: 6F7D - 6F83 (0x7 bytes), align: 0
  Segment part 54.            Intra module refs:   cylStartMenuShow
                                                   manuStartMenuShow
                                                   timeStartMenuShow
                                                   topCylMenuShow
                                                   topManuMenuShow
                                                   topTimeMenuShow
    -------------------------------------------------------------------------
DATA16_C
  Relative segment, address: 6F84 - 6F88 (0x5 bytes), align: 0
  Segment part 55.            Intra module refs:   allSetMenuShow
                                                   manuStartMenuShow
                                                   topCylMenuShow
                                                   topManuMenuShow
                                                   topTimeMenuShow
    -------------------------------------------------------------------------
DATA16_C
  Relative segment, address: 6F89 - 6F8D (0x5 bytes), align: 0
  Segment part 56.            Intra module refs:   allSetMenuShow
                                                   timeStartMenuShow
                                                   topCylMenuShow
                                                   topManuMenuShow
                                                   topTimeMenuShow
    -------------------------------------------------------------------------
DATA16_C
  Relative segment, address: 6F8E - 6F92 (0x5 bytes), align: 0
  Segment part 57.            Intra module refs:   allSetMenuShow
                                                   cylStartMenuShow
                                                   topCylMenuShow
                                                   topManuMenuShow
                                                   topTimeMenuShow
    -------------------------------------------------------------------------
DATA16_C
  Relative segment, address: 6F93 - 6F97 (0x5 bytes), align: 0
  Segment part 58.            Intra module refs:   topCylMenuOnDown
                                                   topCylMenuOnUp
                                                   topCylMenuShow
                                                   topManuMenuOnDown
                                                   topManuMenuOnUp
                                                   topManuMenuShow
                                                   topTimeMenuOnDown
                                                   topTimeMenuOnUp
                                                   topTimeMenuShow
    -------------------------------------------------------------------------
DATA16_C
  Relative segment, address: 6F98 - 6F9C (0x5 bytes), align: 0
  Segment part 59.            Intra module refs:   cylSmpTimeSetMenuOnLeft
                                                   cylSmpTimeSetMenuOnRight
                                                   cylSmpTimeSetMenuShow
                                                   manuStartMenuOnDown
                                                   manuStartMenuOnUp
                                                   manuStartMenuShow
                                                   topManuMenuOnDown
                                                   topManuMenuOnUp
                                                   topManuMenuShow
    -------------------------------------------------------------------------
DATA16_C
  Relative segment, address: 6F9D - 6FA1 (0x5 bytes), align: 0
  Segment part 60.            Intra module refs:   cylSmpTimeSetMenuOnLeft
                                                   cylSmpTimeSetMenuOnRight
                                                   cylSmpTimeSetMenuShow
                                                   manuStartMenuOnDown
                                                   manuStartMenuOnUp
                                                   manuStartMenuShow
                                                   topManuMenuOnDown
                                                   topManuMenuOnUp
                                                   topManuMenuShow
    -------------------------------------------------------------------------
DATA16_C
  Relative segment, address: 6FA2 - 6FA6 (0x5 bytes), align: 0
  Segment part 61.            Intra module refs:   cylStartMenuOnDown
                                                   cylStartMenuOnUp
                                                   cylStartMenuShow
                                                   manuStartMenuOnDown
                                                   manuStartMenuOnUp
                                                   manuStartMenuShow
                                                   timeStartMenuOnDown
                                                   timeStartMenuOnUp
                                                   timeStartMenuShow
                                                   topCylMenuOnDown
                                                   topCylMenuOnUp
                                                   topCylMenuShow
                                                   topManuMenuOnDown
                                                   topManuMenuOnUp
                                                   topManuMenuShow
                                                   topTimeMenuOnDown
                                                   topTimeMenuOnUp
                                                   topTimeMenuShow
    -------------------------------------------------------------------------
DATA16_C
  Relative segment, address: 6FA7 - 6FAB (0x5 bytes), align: 0
  Segment part 62.            Intra module refs:   cylStartMenuShow
                                                   cylViewSetMenuShow
                                                   manuStartMenuShow
                                                   timeStartMenuShow
                                                   timeViewSetMenuShow
                                                   topCylMenuShow
                                                   topManuMenuShow
                                                   topTimeMenuShow
    -------------------------------------------------------------------------
DATA16_C
  Relative segment, address: 6FAC - 6FB2 (0x7 bytes), align: 0
  Segment part 63.            Intra module refs:   cylStartMenuShow
                                                   manuStartMenuShow
                                                   timeStartMenuShow
                                                   topCylMenuShow
                                                   topManuMenuShow
                                                   topTimeMenuShow
    -------------------------------------------------------------------------
DATA16_C
  Relative segment, address: 6FB3 - 6FB5 (0x3 bytes), align: 0
  Segment part 64.            Intra module refs:   manuStartMenuShow
                                                   topManuMenuOnLeft
                                                   topManuMenuOnRight
                                                   topManuMenuShow
    -------------------------------------------------------------------------
DATA16_C
  Relative segment, address: 6FB6 - 6FBC (0x7 bytes), align: 0
  Segment part 65.            Intra module refs:   timeStartMenuShow
                                                   topTimeMenuShow
    -------------------------------------------------------------------------
DATA16_C
  Relative segment, address: 6FBD - 6FC1 (0x5 bytes), align: 0
  Segment part 66.            Intra module refs:   cylStartMenuOnDown
                                                   cylStartMenuOnUp
                                                   cylStartMenuShow
                                                   timeStartMenuOnDown
                                                   timeStartMenuOnUp
                                                   timeStartMenuShow
                                                   topCylMenuOnDown
                                                   topCylMenuOnUp
                                                   topCylMenuShow
                                                   topTimeMenuOnDown
                                                   topTimeMenuOnUp
                                                   topTimeMenuShow
    -------------------------------------------------------------------------
DATA16_C
  Relative segment, address: 6FC2 - 6FC6 (0x5 bytes), align: 0
  Segment part 67.            Intra module refs:   cylStartMenuOnDown
                                                   cylStartMenuOnUp
                                                   cylStartMenuShow
                                                   timeStartMenuOnDown
                                                   timeStartMenuOnUp
                                                   timeStartMenuShow
                                                   topCylMenuOnDown
                                                   topCylMenuOnUp
                                                   topCylMenuShow
                                                   topTimeMenuOnDown
                                                   topTimeMenuOnUp
                                                   topTimeMenuShow
    -------------------------------------------------------------------------
DATA16_C
  Relative segment, address: 6FC7 - 6FCB (0x5 bytes), align: 0
  Segment part 68.            Intra module refs:   cylStartMenuOnDown
                                                   cylStartMenuOnUp
                                                   cylStartMenuShow
                                                   manuStartMenuOnDown
                                                   manuStartMenuOnUp
                                                   manuStartMenuShow
                                                   timeStartMenuOnDown
                                                   timeStartMenuOnUp
                                                   timeStartMenuShow
    -------------------------------------------------------------------------
DATA16_C
  Relative segment, address: 6FCC - 6FD0 (0x5 bytes), align: 0
  Segment part 69.            Intra module refs:   cylStartMenuOnDown
                                                   cylStartMenuOnUp
                                                   cylStartMenuShow
                                                   manuStartMenuOnDown
                                                   manuStartMenuOnUp
                                                   manuStartMenuShow
                                                   timeStartMenuOnDown
                                                   timeStartMenuOnUp
                                                   timeStartMenuShow
    -------------------------------------------------------------------------
DATA16_C
  Relative segment, address: 6FD1 - 6FE4 (0x14 bytes), align: 0
  Segment part 70.            Intra module refs:   MwarnStopMenuShow
    -------------------------------------------------------------------------
DATA16_C
  Relative segment, address: 6FE5 - 6FF9 (0x15 bytes), align: 0
  Segment part 71.            Intra module refs:   CwarnStopMenuShow
                                                   MwarnStopMenuShow
                                                   TwarnStopMenuShow
    -------------------------------------------------------------------------
DATA16_C
  Relative segment, address: 6FFA - 7006 (0xd bytes), align: 0
  Segment part 72.            Intra module refs:   MwarnStopMenuShow
    -------------------------------------------------------------------------
DATA16_C
  Relative segment, address: 7007 - 7013 (0xd bytes), align: 0
  Segment part 73.            Intra module refs:   CwarnStopMenuShow
                                                   MwarnStopMenuShow
                                                   TwarnStopMenuShow
    -------------------------------------------------------------------------
DATA16_C
  Relative segment, address: 7014 - 7026 (0x13 bytes), align: 0
  Segment part 74.            Intra module refs:   TwarnStopMenuShow
    -------------------------------------------------------------------------
DATA16_C
  Relative segment, address: 7027 - 7029 (0x3 bytes), align: 0
  Segment part 75.            Intra module refs:   CwarnStopMenuShow
                                                   TwarnStopMenuShow
    -------------------------------------------------------------------------
DATA16_C
  Relative segment, address: 702A - 7032 (0x9 bytes), align: 0
  Segment part 76.            Intra module refs:   TwarnStopMenuShow
    -------------------------------------------------------------------------
DATA16_C
  Relative segment, address: 7033 - 7045 (0x13 bytes), align: 0
  Segment part 77.            Intra module refs:   CwarnStopMenuShow
    -------------------------------------------------------------------------
DATA16_C
  Relative segment, address: 7046 - 7052 (0xd bytes), align: 0
  Segment part 78.            Intra module refs:   CwarnStopMenuShow
    -------------------------------------------------------------------------
DATA16_C
  Relative segment, address: 7053 - 7059 (0x7 bytes), align: 0
  Segment part 79.            Intra module refs:   smpTimeMenuOnLeft
                                                   smpTimeMenuOnRight
                                                   smpTimeMenuShow
    -------------------------------------------------------------------------
DATA16_C
  Relative segment, address: 705A - 7060 (0x7 bytes), align: 0
  Segment part 80.            Intra module refs:   smpTimeMenuOnLeft
                                                   smpTimeMenuOnRight
                                                   smpTimeMenuShow
    -------------------------------------------------------------------------
DATA16_C
  Relative segment, address: 7061 - 7067 (0x7 bytes), align: 0
  Segment part 81.            Intra module refs:   smpTimeMenuOnLeft
                                                   smpTimeMenuOnRight
                                                   smpTimeMenuShow
    -------------------------------------------------------------------------
DATA16_C
  Relative segment, address: 7068 - 706E (0x7 bytes), align: 0
  Segment part 82.            Intra module refs:   smpTimeMenuOnLeft
                                                   smpTimeMenuOnRight
                                                   smpTimeMenuShow
    -------------------------------------------------------------------------
DATA16_C
  Relative segment, address: 706F - 7072 (0x4 bytes), align: 0
  Segment part 83.            Intra module refs:   cylDelaySetMenuShow
                                                   cylSmpTimeSetMenuOnOk
                                                   cylSmpTimeSetMenuShow
                                                   cylViewSetMenuShow
                                                   cylViewStatusMenuShow
                                                   groupWorkTimeSetMenuShow
                                                   smpTimeMenuOnOk
                                                   smpTimeMenuShow
                                                   timeViewSetMenuShow
    -------------------------------------------------------------------------
DATA16_C
  Relative segment, address: 7073 - 7086 (0x14 bytes), align: 0
  Segment part 84.            Intra module refs:   smpTimeWarnMenuShow
    -------------------------------------------------------------------------
DATA16_C
  Relative segment, address: 7087 - 7099 (0x13 bytes), align: 0
  Segment part 85.            Intra module refs:   smpTimeWarnMenuShow
    -------------------------------------------------------------------------
DATA16_C
  Relative segment, address: 709A - 70A7 (0xe bytes), align: 0
  Segment part 86.            Intra module refs:   smpTimeWarnMenuShow
    -------------------------------------------------------------------------
DATA16_C
  Relative segment, address: 70A8 - 70B6 (0xf bytes), align: 0
  Segment part 87.            Intra module refs:   groupWarnMenuShow
                                                   smpTimeWarnMenuShow
    -------------------------------------------------------------------------
DATA16_C
  Relative segment, address: 70B7 - 70C5 (0xf bytes), align: 0
  Segment part 88.            Intra module refs:   smpTimeWarnMenuShow
    -------------------------------------------------------------------------
DATA16_C
  Relative segment, address: 70C6 - 70C8 (0x3 bytes), align: 0
  Segment part 89.            Intra module refs:   smpTimeWarnMenuShow
    -------------------------------------------------------------------------
DATA16_C
  Relative segment, address: 70C9 - 70D3 (0xb bytes), align: 0
  Segment part 90.            Intra module refs:   groupWarnMenuShow
                                                   smpTimeWarnMenuShow
    -------------------------------------------------------------------------
DATA16_C
  Relative segment, address: 70D4 - 70D6 (0x3 bytes), align: 0
  Segment part 91.            Intra module refs:   cylViewMenuShow
                                                   timeViewMenuShow
    -------------------------------------------------------------------------
DATA16_C
  Relative segment, address: 70D7 - 70D9 (0x3 bytes), align: 0
  Segment part 92.            Intra module refs:   cylViewMenuShow
                                                   timeViewMenuShow
    -------------------------------------------------------------------------
DATA16_C
  Relative segment, address: 70DA - 70E9 (0x10 bytes), align: 0
  Segment part 93.            Intra module refs:   cylViewMenuShow
                                                   timeViewMenuShow
    -------------------------------------------------------------------------
DATA16_C
  Relative segment, address: 70EA - 70F9 (0x10 bytes), align: 0
  Segment part 94.            Intra module refs:   timeViewMenuOnDown
                                                   timeViewMenuOnUp
                                                   timeViewMenuShow
    -------------------------------------------------------------------------
DATA16_C
  Relative segment, address: 70FA - 7107 (0xe bytes), align: 0
  Segment part 95.            Intra module refs:   timeViewMenuOnDown
                                                   timeViewMenuOnUp
                                                   timeViewMenuShow
    -------------------------------------------------------------------------
DATA16_C
  Relative segment, address: 7108 - 7116 (0xf bytes), align: 0
  Segment part 96.            Intra module refs:   cylViewMenuShow
                                                   timeViewMenuShow
    -------------------------------------------------------------------------
DATA16_C
  Relative segment, address: 7117 - 7123 (0xd bytes), align: 0
  Segment part 97.            Intra module refs:   timeViewMenuOnDown
                                                   timeViewMenuOnUp
                                                   timeViewMenuShow
    -------------------------------------------------------------------------
DATA16_C
  Relative segment, address: 7124 - 7130 (0xd bytes), align: 0
  Segment part 98.            Intra module refs:   timeViewMenuOnDown
                                                   timeViewMenuOnUp
                                                   timeViewMenuShow
    -------------------------------------------------------------------------
DATA16_C
  Relative segment, address: 7131 - 7142 (0x12 bytes), align: 0
  Segment part 99.            Intra module refs:   timeViewSetMenuShow
    -------------------------------------------------------------------------
DATA16_C
  Relative segment, address: 7143 - 714E (0xc bytes), align: 0
  Segment part 100.           Intra module refs:   timeViewSetMenuShow
    -------------------------------------------------------------------------
DATA16_C
  Relative segment, address: 714F - 7158 (0xa bytes), align: 0
  Segment part 101.           Intra module refs:   cylViewSetMenuShow
                                                   timeViewSetMenuShow
    -------------------------------------------------------------------------
DATA16_C
  Relative segment, address: 7159 - 715E (0x6 bytes), align: 0
  Segment part 102.           Intra module refs:   cylViewSetMenuShow
                                                   timeViewSetMenuShow
    -------------------------------------------------------------------------
DATA16_C
  Relative segment, address: 715F - 7166 (0x8 bytes), align: 0
  Segment part 103.           Intra module refs:   cylViewStatusMenuShow
                                                   timeViewSetMenuShow
    -------------------------------------------------------------------------
DATA16_C
  Relative segment, address: 7167 - 716D (0x7 bytes), align: 0
  Segment part 104.           Intra module refs:   calibrateFlowMenuShow
                                                   cylViewSetMenuShow
                                                   flowSetShow
                                                   timeViewSetMenuShow
    -------------------------------------------------------------------------
DATA16_C
  Relative segment, address: 716E - 7170 (0x3 bytes), align: 0
  Segment part 105.           Intra module refs:   groupParaSetMenuOnDown
                                                   groupParaSetMenuOnUp
                                                   groupParaSetMenuShow
                                                   timePowerOffSetMenuOnDown
                                                   timePowerOffSetMenuOnUp
                                                   timePowerOffSetMenuShow
                                                   timeViewSetMenuOnLeft
                                                   timeViewSetMenuOnRight
                                                   timeViewSetMenuShow
    -------------------------------------------------------------------------
DATA16_C
  Relative segment, address: 7171 - 7174 (0x4 bytes), align: 0
  Segment part 106.           Intra module refs:   timeViewSetMenuOnLeft
                                                   timeViewSetMenuOnRight
                                                   timeViewSetMenuShow
                                                   timeViewStatusMenuOnDown
                                                   timeViewStatusMenuOnUp
                                                   timeViewStatusMenuShow
    -------------------------------------------------------------------------
DATA16_C
  Relative segment, address: 7175 - 7177 (0x3 bytes), align: 0
  Segment part 107.           Intra module refs:   Segment part 306
                                                   Segment part 308
                                                   groupWarnMenuShow
                                                   timeViewSetMenuShow
                                                   timeViewStatusMenuShow
    -------------------------------------------------------------------------
DATA16_C
  Relative segment, address: 7178 - 717C (0x5 bytes), align: 0
  Segment part 108.           Intra module refs:   groupParaSetMenuShow
                                                   timeViewSetMenuShow
    -------------------------------------------------------------------------
DATA16_C
  Relative segment, address: 717D - 7185 (0x9 bytes), align: 0
  Segment part 109.           Intra module refs:   groupWorkTimeSetMenuOnDown
                                                   groupWorkTimeSetMenuOnLeft
                                                   groupWorkTimeSetMenuOnRight
                                                   groupWorkTimeSetMenuOnUp
                                                   groupWorkTimeSetMenuShow
                                                   timeViewSetMenuShow
    -------------------------------------------------------------------------
DATA16_C
  Relative segment, address: 7186 - 718E (0x9 bytes), align: 0
  Segment part 110.           Intra module refs:   cylParaSetMenuOnDown
                                                   cylParaSetMenuOnUp
                                                   cylParaSetMenuShow
                                                   cylViewSetMenuShow
                                                   groupWorkTimeSetMenuOnDown
                                                   groupWorkTimeSetMenuOnLeft
                                                   groupWorkTimeSetMenuOnRight
                                                   groupWorkTimeSetMenuOnUp
                                                   groupWorkTimeSetMenuShow
                                                   timeViewSetMenuShow
    -------------------------------------------------------------------------
DATA16_C
  Relative segment, address: 718F - 7193 (0x5 bytes), align: 0
  Segment part 111.           Intra module refs:   groupParaSetMenuOnDown
                                                   groupParaSetMenuOnUp
                                                   groupParaSetMenuShow
                                                   timePowerOffSetMenuOnDown
                                                   timePowerOffSetMenuOnUp
                                                   timePowerOffSetMenuShow
                                                   timeViewSetMenuShow
    -------------------------------------------------------------------------
DATA16_C
  Relative segment, address: 7194 - 719A (0x7 bytes), align: 0
  Segment part 112.           Intra module refs:   timeViewSetMenuOnLeft
                                                   timeViewSetMenuOnRight
                                                   timeViewSetMenuShow
    -------------------------------------------------------------------------
DATA16_C
  Relative segment, address: 719B - 71A1 (0x7 bytes), align: 0
  Segment part 113.           Intra module refs:   timeViewSetMenuOnLeft
                                                   timeViewSetMenuOnRight
                                                   timeViewSetMenuShow
                                                   timeViewStatusMenuOnDown
                                                   timeViewStatusMenuOnUp
                                                   timeViewStatusMenuShow
    -------------------------------------------------------------------------
DATA16_C
  Relative segment, address: 71A2 - 71A5 (0x4 bytes), align: 0
  Segment part 114.           Intra module refs:   timeViewStatusMenuShow
    -------------------------------------------------------------------------
DATA16_C
  Relative segment, address: 71A6 - 71AE (0x9 bytes), align: 0
  Segment part 115.           Intra module refs:   timeViewStatusMenuShow
    -------------------------------------------------------------------------
DATA16_C
  Relative segment, address: 71AF - 71B6 (0x8 bytes), align: 0
  Segment part 116.           Intra module refs:   timeViewStatusMenuShow
    -------------------------------------------------------------------------
DATA16_C
  Relative segment, address: 71B7 - 71BC (0x6 bytes), align: 0
  Segment part 117.           Intra module refs:   timeViewStatusMenuOnDown
                                                   timeViewStatusMenuOnUp
                                                   timeViewStatusMenuShow
    -------------------------------------------------------------------------
DATA16_C
  Relative segment, address: 71BD - 71C3 (0x7 bytes), align: 0
  Segment part 118.           Intra module refs:   timeViewStatusMenuOnDown
                                                   timeViewStatusMenuOnUp
                                                   timeViewStatusMenuShow
    -------------------------------------------------------------------------
DATA16_C
  Relative segment, address: 71C4 - 71CF (0xc bytes), align: 0
  Segment part 119.           Intra module refs:   cylViewStatusMenuShow
                                                   timeViewStatusMenuOnDown
                                                   timeViewStatusMenuOnUp
                                                   timeViewStatusMenuShow
    -------------------------------------------------------------------------
DATA16_C
  Relative segment, address: 71D0 - 71D8 (0x9 bytes), align: 0
  Segment part 120.           Intra module refs:   cylViewStatusMenuShow
                                                   timeViewStatusMenuShow
    -------------------------------------------------------------------------
DATA16_C
  Relative segment, address: 71D9 - 71DF (0x7 bytes), align: 0
  Segment part 121.           Intra module refs:   timeViewStatusMenuShow
    -------------------------------------------------------------------------
DATA16_C
  Relative segment, address: 71E0 - 71E4 (0x5 bytes), align: 0
  Segment part 122.           Intra module refs:   timeViewStatusMenuOnDown
                                                   timeViewStatusMenuOnUp
                                                   timeViewStatusMenuShow
    -------------------------------------------------------------------------
DATA16_C
  Relative segment, address: 71E5 - 71EB (0x7 bytes), align: 0
  Segment part 123.           Intra module refs:   timeViewStatusMenuOnDown
                                                   timeViewStatusMenuOnUp
                                                   timeViewStatusMenuShow
    -------------------------------------------------------------------------
DATA16_C
  Relative segment, address: 71EC - 71F6 (0xb bytes), align: 0
  Segment part 124.           Intra module refs:   timeViewStatusMenuOnDown
                                                   timeViewStatusMenuOnUp
                                                   timeViewStatusMenuShow
    -------------------------------------------------------------------------
DATA16_C
  Relative segment, address: 71F7 - 7206 (0x10 bytes), align: 0
  Segment part 125.           Intra module refs:   cylViewMenuOnDown
                                                   cylViewMenuOnUp
                                                   cylViewMenuShow
    -------------------------------------------------------------------------
DATA16_C
  Relative segment, address: 7207 - 7214 (0xe bytes), align: 0
  Segment part 126.           Intra module refs:   cylViewMenuOnDown
                                                   cylViewMenuOnUp
                                                   cylViewMenuShow
    -------------------------------------------------------------------------
DATA16_C
  Relative segment, address: 7215 - 7221 (0xd bytes), align: 0
  Segment part 127.           Intra module refs:   cylParaSetMenuShow
                                                   cylViewMenuOnDown
                                                   cylViewMenuOnUp
                                                   cylViewMenuShow
                                                   cylViewSetMenuShow
    -------------------------------------------------------------------------
DATA16_C
  Relative segment, address: 7222 - 722E (0xd bytes), align: 0
  Segment part 128.           Intra module refs:   cylViewMenuOnDown
                                                   cylViewMenuOnUp
                                                   cylViewMenuShow
                                                   cylViewStatusMenuShow
    -------------------------------------------------------------------------
DATA16_C
  Relative segment, address: 722F - 723F (0x11 bytes), align: 0
  Segment part 129.           Intra module refs:   cylViewSetMenuShow
    -------------------------------------------------------------------------
DATA16_C
  Relative segment, address: 7240 - 724B (0xc bytes), align: 0
  Segment part 130.           Intra module refs:   cylViewSetMenuShow
    -------------------------------------------------------------------------
DATA16_C
  Relative segment, address: 724C - 724D (0x2 bytes), align: 0
  Segment part 131.           Intra module refs:   cylSmpTimeSetMenuOnOk
                                                   cylSmpTimeSetMenuShow
                                                   cylViewSetMenuShow
    -------------------------------------------------------------------------
DATA16_C
  Relative segment, address: 724E - 7254 (0x7 bytes), align: 0
  Segment part 132.           Intra module refs:   cylViewSetMenuShow
    -------------------------------------------------------------------------
DATA16_C
  Relative segment, address: 7255 - 725C (0x8 bytes), align: 0
  Segment part 133.           Intra module refs:   cylViewSetMenuShow
    -------------------------------------------------------------------------
DATA16_C
  Relative segment, address: 725D - 7265 (0x9 bytes), align: 0
  Segment part 134.           Intra module refs:   cylViewSetMenuShow
    -------------------------------------------------------------------------
DATA16_C
  Relative segment, address: 7266 - 726E (0x9 bytes), align: 0
  Segment part 135.           Intra module refs:   cylParaSetMenuOnDown
                                                   cylParaSetMenuOnUp
                                                   cylParaSetMenuShow
                                                   cylViewSetMenuShow
    -------------------------------------------------------------------------
DATA16_C
  Relative segment, address: 726F - 7277 (0x9 bytes), align: 0
  Segment part 136.           Intra module refs:   cylParaSetMenuOnDown
                                                   cylParaSetMenuOnUp
                                                   cylParaSetMenuShow
                                                   cylViewSetMenuShow
    -------------------------------------------------------------------------
DATA16_C
  Relative segment, address: 7278 - 7286 (0xf bytes), align: 0
  Segment part 137.           Intra module refs:   cylViewStatusMenuShow
    -------------------------------------------------------------------------
DATA16_C
  Relative segment, address: 7287 - 7290 (0xa bytes), align: 0
  Segment part 138.           Intra module refs:   cylViewStatusMenuShow
    -------------------------------------------------------------------------
DATA16_C
  Relative segment, address: 7291 - 7295 (0x5 bytes), align: 0
  Segment part 139.           Intra module refs:   cylViewStatusMenuShow
    -------------------------------------------------------------------------
DATA16_C
  Relative segment, address: 7296 - 7298 (0x3 bytes), align: 0
  Segment part 140.           Intra module refs:   cylViewStatusMenuShow
    -------------------------------------------------------------------------
DATA16_C
  Relative segment, address: 7299 - 729F (0x7 bytes), align: 0
  Segment part 141.           Intra module refs:   cylParaSetMenuOnDown
                                                   cylParaSetMenuOnUp
                                                   cylParaSetMenuShow
                                                   cylViewStatusMenuShow
                                                   cylsMoveFont
    -------------------------------------------------------------------------
DATA16_C
  Relative segment, address: 72A0 - 72A2 (0x3 bytes), align: 0
  Segment part 142.           Intra module refs:   cylViewStatusMenuShow
    -------------------------------------------------------------------------
DATA16_C
  Relative segment, address: 72A3 - 72AB (0x9 bytes), align: 0
  Segment part 143.           Intra module refs:   cylViewStatusMenuExec
                                                   cylViewStatusMenuShow
    -------------------------------------------------------------------------
DATA16_C
  Relative segment, address: 72AC - 72B3 (0x8 bytes), align: 0
  Segment part 144.           Intra module refs:   cylViewStatusMenuExec
                                                   cylViewStatusMenuShow
    -------------------------------------------------------------------------
DATA16_C
  Relative segment, address: 72B4 - 72B8 (0x5 bytes), align: 0
  Segment part 145.           Intra module refs:   cylViewStatusMenuShow
    -------------------------------------------------------------------------
DATA16_C
  Relative segment, address: 72B9 - 72BF (0x7 bytes), align: 0
  Segment part 146.           Intra module refs:   cylViewStatusMenuShow
    -------------------------------------------------------------------------
DATA16_C
  Relative segment, address: 72C0 - 72C2 (0x3 bytes), align: 0
  Segment part 147.           Intra module refs:   Segment part 306
                                                   Segment part 308
                                                   Segment part 311
                                                   Segment part 313
                                                   cylViewStatusMenuShow
    -------------------------------------------------------------------------
DATA16_C
  Relative segment, address: 72C3 - 72C9 (0x7 bytes), align: 0
  Segment part 148.           Intra module refs:   Segment part 311
                                                   Segment part 313
                                                   cylViewStatusMenuShow
    -------------------------------------------------------------------------
DATA16_C
  Relative segment, address: 72CA - 72D0 (0x7 bytes), align: 0
  Segment part 149.           Intra module refs:   cylViewStatusMenuExec
                                                   cylViewStatusMenuShow
    -------------------------------------------------------------------------
DATA16_C
  Relative segment, address: 72D1 - 72D7 (0x7 bytes), align: 0
  Segment part 150.           Intra module refs:   cylViewStatusMenuExec
                                                   cylViewStatusMenuShow
    -------------------------------------------------------------------------
DATA16_C
  Relative segment, address: 72D8 - 72E4 (0xd bytes), align: 0
  Segment part 151.           Intra module refs:   modSetMenuShow
    -------------------------------------------------------------------------
DATA16_C
  Relative segment, address: 72E5 - 72E9 (0x5 bytes), align: 0
  Segment part 152.           Intra module refs:   modSetMenuOnDown
                                                   modSetMenuOnLeft
                                                   modSetMenuOnRight
                                                   modSetMenuOnUp
                                                   modSetMenuShow
    -------------------------------------------------------------------------
DATA16_C
  Relative segment, address: 72EA - 72F0 (0x7 bytes), align: 0
  Segment part 153.           Intra module refs:   modSetMenuOnDown
                                                   modSetMenuOnLeft
                                                   modSetMenuOnRight
                                                   modSetMenuOnUp
                                                   modSetMenuShow
    -------------------------------------------------------------------------
DATA16_C
  Relative segment, address: 72F1 - 72F6 (0x6 bytes), align: 0
  Segment part 154.           Intra module refs:   modSetMenuOnDown
                                                   modSetMenuOnLeft
                                                   modSetMenuOnRight
                                                   modSetMenuOnUp
                                                   modSetMenuShow
    -------------------------------------------------------------------------
DATA16_C
  Relative segment, address: 72F7 - 7301 (0xb bytes), align: 0
  Segment part 155.           Intra module refs:   modSetMenuShow
    -------------------------------------------------------------------------
DATA16_C
  Relative segment, address: 7302 - 730A (0x9 bytes), align: 0
  Segment part 156.           Intra module refs:   modSetMenuOnDown
                                                   modSetMenuOnLeft
                                                   modSetMenuOnRight
                                                   modSetMenuOnUp
                                                   modSetMenuShow
    -------------------------------------------------------------------------
DATA16_C
  Relative segment, address: 730B - 7313 (0x9 bytes), align: 0
  Segment part 157.           Intra module refs:   modSetMenuOnDown
                                                   modSetMenuOnLeft
                                                   modSetMenuOnRight
                                                   modSetMenuOnUp
                                                   modSetMenuShow
    -------------------------------------------------------------------------
DATA16_C
  Relative segment, address: 7314 - 731C (0x9 bytes), align: 0
  Segment part 158.           Intra module refs:   modSetMenuOnDown
                                                   modSetMenuOnLeft
                                                   modSetMenuOnRight
                                                   modSetMenuOnUp
                                                   modSetMenuShow
    -------------------------------------------------------------------------
DATA16_C
  Relative segment, address: 731D - 7329 (0xd bytes), align: 0
  Segment part 159.           Intra module refs:   groupSetMenuShow
    -------------------------------------------------------------------------
DATA16_C
  Relative segment, address: 732A - 732F (0x6 bytes), align: 0
  Segment part 160.           Intra module refs:   groupSetMenuOnDown
                                                   groupSetMenuOnLeft
                                                   groupSetMenuOnRight
                                                   groupSetMenuOnUp
                                                   groupSetMenuShow
                                                   groupWarnMenuShow
    -------------------------------------------------------------------------
DATA16_C
  Relative segment, address: 7330 - 733E (0xf bytes), align: 0
  Segment part 161.           Intra module refs:   groupSetMenuShow
    -------------------------------------------------------------------------
DATA16_C
  Relative segment, address: 733F - 7345 (0x7 bytes), align: 0
  Segment part 162.           Intra module refs:   groupParaSetMenuShow
                                                   groupSetMenuOnDown
                                                   groupSetMenuOnLeft
                                                   groupSetMenuOnRight
                                                   groupSetMenuOnUp
                                                   groupSetMenuShow
    -------------------------------------------------------------------------
DATA16_C
  Relative segment, address: 7346 - 7353 (0xe bytes), align: 0
  Segment part 163.           Intra module refs:   groupParaSetMenuShow
    -------------------------------------------------------------------------
DATA16_C
  Relative segment, address: 7354 - 735D (0xa bytes), align: 0
  Segment part 164.           Intra module refs:   groupParaSetMenuOnDown
                                                   groupParaSetMenuOnUp
                                                   groupParaSetMenuShow
    -------------------------------------------------------------------------
DATA16_C
  Relative segment, address: 735E - 7362 (0x5 bytes), align: 0
  Segment part 165.           Intra module refs:   cylParaSetMenuOnDown
                                                   cylParaSetMenuOnUp
                                                   cylParaSetMenuShow
                                                   groupParaSetMenuOnDown
                                                   groupParaSetMenuOnUp
                                                   groupParaSetMenuShow
    -------------------------------------------------------------------------
DATA16_C
  Relative segment, address: 7363 - 736B (0x9 bytes), align: 0
  Segment part 166.           Intra module refs:   groupParaSetMenuOnDown
                                                   groupParaSetMenuOnUp
                                                   groupParaSetMenuShow
    -------------------------------------------------------------------------
DATA16_C
  Relative segment, address: 736C - 7374 (0x9 bytes), align: 0
  Segment part 167.           Intra module refs:   cylParaSetMenuOnDown
                                                   cylParaSetMenuOnUp
                                                   cylParaSetMenuShow
                                                   groupParaSetMenuOnDown
                                                   groupParaSetMenuOnUp
                                                   groupParaSetMenuShow
    -------------------------------------------------------------------------
DATA16_C
  Relative segment, address: 7375 - 7382 (0xe bytes), align: 0
  Segment part 168.           Intra module refs:   groupWorkTimeSetMenuShow
    -------------------------------------------------------------------------
DATA16_C
  Relative segment, address: 7383 - 738D (0xb bytes), align: 0
  Segment part 169.           Intra module refs:   groupWorkTimeSetMenuOnDown
                                                   groupWorkTimeSetMenuOnLeft
                                                   groupWorkTimeSetMenuOnRight
                                                   groupWorkTimeSetMenuOnUp
                                                   groupWorkTimeSetMenuShow
    -------------------------------------------------------------------------
DATA16_C
  Relative segment, address: 738E - 7396 (0x9 bytes), align: 0
  Segment part 170.           Intra module refs:   cylParaSetMenuOnDown
                                                   cylParaSetMenuOnUp
                                                   cylParaSetMenuShow
                                                   groupWorkTimeSetMenuOnDown
                                                   groupWorkTimeSetMenuOnLeft
                                                   groupWorkTimeSetMenuOnRight
                                                   groupWorkTimeSetMenuOnUp
                                                   groupWorkTimeSetMenuShow
    -------------------------------------------------------------------------
DATA16_C
  Relative segment, address: 7397 - 73A3 (0xd bytes), align: 0
  Segment part 171.           Intra module refs:   groupWorkTimeSetMenuShow
    -------------------------------------------------------------------------
DATA16_C
  Relative segment, address: 73A4 - 73B7 (0x14 bytes), align: 0
  Segment part 172.           Intra module refs:   groupWarnMenuShow
    -------------------------------------------------------------------------
DATA16_C
  Relative segment, address: 73B8 - 73C5 (0xe bytes), align: 0
  Segment part 173.           Intra module refs:   groupWarnMenuShow
    -------------------------------------------------------------------------
DATA16_C
  Relative segment, address: 73C6 - 73C7 (0x2 bytes), align: 0
  Segment part 174.           Intra module refs:   errFlowMenuShow
                                                   groupWarnMenuShow
    -------------------------------------------------------------------------
DATA16_C
  Relative segment, address: 73C8 - 73DA (0x13 bytes), align: 0
  Segment part 175.           Intra module refs:   groupWarnMenuShow
    -------------------------------------------------------------------------
DATA16_C
  Relative segment, address: 73DB - 73E8 (0xe bytes), align: 0
  Segment part 176.           Intra module refs:   errFlowMenuShow
                                                   groupWarnMenuShow
    -------------------------------------------------------------------------
DATA16_C
  Relative segment, address: 73E9 - 73F1 (0x9 bytes), align: 0
  Segment part 177.           Intra module refs:   groupWarnMenuShow
    -------------------------------------------------------------------------
DATA16_C
  Relative segment, address: 73F2 - 73F6 (0x5 bytes), align: 0
  Segment part 178.           Intra module refs:   groupWarnMenuShow
    -------------------------------------------------------------------------
DATA16_C
  Relative segment, address: 73F7 - 73FB (0x5 bytes), align: 0
  Segment part 179.           Intra module refs:   groupWarnMenuShow
    -------------------------------------------------------------------------
DATA16_C
  Relative segment, address: 73FC - 740A (0xf bytes), align: 0
  Segment part 180.           Intra module refs:   cylParaSetMenuShow
    -------------------------------------------------------------------------
DATA16_C
  Relative segment, address: 740B - 7410 (0x6 bytes), align: 0
  Segment part 181.           Intra module refs:   cylParaSetMenuOnDown
                                                   cylParaSetMenuOnUp
                                                   cylParaSetMenuShow
    -------------------------------------------------------------------------
DATA16_C
  Relative segment, address: 7411 - 741B (0xb bytes), align: 0
  Segment part 182.           Intra module refs:   cylParaSetMenuOnDown
                                                   cylParaSetMenuOnUp
                                                   cylParaSetMenuShow
    -------------------------------------------------------------------------
DATA16_C
  Relative segment, address: 741C - 7424 (0x9 bytes), align: 0
  Segment part 183.           Intra module refs:   cylParaSetMenuOnDown
                                                   cylParaSetMenuOnUp
                                                   cylParaSetMenuShow
    -------------------------------------------------------------------------
DATA16_C
  Relative segment, address: 7425 - 7433 (0xf bytes), align: 0
  Segment part 184.           Intra module refs:   cylDelaySetMenuShow
    -------------------------------------------------------------------------
DATA16_C
  Relative segment, address: 7434 - 7440 (0xd bytes), align: 0
  Segment part 185.           Intra module refs:   cylDelaySetMenuShow
    -------------------------------------------------------------------------
DATA16_C
  Relative segment, address: 7441 - 7444 (0x4 bytes), align: 0
  Segment part 186.           Intra module refs:   cylSmpTimeSetMenuOnLeft
                                                   cylSmpTimeSetMenuOnRight
                                                   cylSmpTimeSetMenuShow
    -------------------------------------------------------------------------
DATA16_C
  Relative segment, address: 7445 - 7453 (0xf bytes), align: 0
  Segment part 187.           Intra module refs:   cylCyclesSetMenuShow
    -------------------------------------------------------------------------
DATA16_C
  Relative segment, address: 7454 - 745A (0x7 bytes), align: 0
  Segment part 188.           Intra module refs:   cylCyclesSetMenuShow
    -------------------------------------------------------------------------
DATA16_C
  Relative segment, address: 745B - 7467 (0xd bytes), align: 0
  Segment part 189.           Intra module refs:   cylCyclesSetMenuShow
    -------------------------------------------------------------------------
DATA16_C
  Relative segment, address: 7468 - 746A (0x3 bytes), align: 0
  Segment part 190.           Intra module refs:   Segment part 311
                                                   Segment part 313
                                                   cylCyclesSetMenuShow
    -------------------------------------------------------------------------
DATA16_C
  Relative segment, address: 746B - 7477 (0xd bytes), align: 0
  Segment part 191.           Intra module refs:   languageSetMenuShow
    -------------------------------------------------------------------------
DATA16_C
  Relative segment, address: 7478 - 747F (0x8 bytes), align: 0
  Segment part 192.           Intra module refs:   languageSetMenuOnDown
                                                   languageSetMenuOnLeft
                                                   languageSetMenuOnRight
                                                   languageSetMenuOnUp
                                                   languageSetMenuShow
    -------------------------------------------------------------------------
DATA16_C
  Relative segment, address: 7480 - 748A (0xb bytes), align: 0
  Segment part 193.           Intra module refs:   languageSetMenuShow
    -------------------------------------------------------------------------
DATA16_C
  Relative segment, address: 748B - 7493 (0x9 bytes), align: 0
  Segment part 194.           Intra module refs:   languageSetMenuOnDown
                                                   languageSetMenuOnLeft
                                                   languageSetMenuOnRight
                                                   languageSetMenuOnUp
                                                   languageSetMenuShow
    -------------------------------------------------------------------------
DATA16_C
  Relative segment, address: 7494 - 74A0 (0xd bytes), align: 0
  Segment part 195.           Intra module refs:   sysTimeSetMenuShow
    -------------------------------------------------------------------------
DATA16_C
  Relative segment, address: 74A1 - 74AD (0xd bytes), align: 0
  Segment part 196.           Intra module refs:   sysTimeSetMenuShow
    -------------------------------------------------------------------------
DATA16_C
  Relative segment, address: 74AE - 74BB (0xe bytes), align: 0
  Segment part 197.           Intra module refs:   timePowerOffSetMenuOnDown
                                                   timePowerOffSetMenuOnUp
                                                   timePowerOffSetMenuShow
    -------------------------------------------------------------------------
DATA16_C
  Relative segment, address: 74BC - 74C4 (0x9 bytes), align: 0
  Segment part 198.           Intra module refs:   timePowerOffSetMenuOnDown
                                                   timePowerOffSetMenuOnUp
                                                   timePowerOffSetMenuShow
    -------------------------------------------------------------------------
DATA16_C
  Relative segment, address: 74C5 - 74D1 (0xd bytes), align: 0
  Segment part 199.           Intra module refs:   timePowerOffSetMenuOnDown
                                                   timePowerOffSetMenuOnUp
                                                   timePowerOffSetMenuShow
    -------------------------------------------------------------------------
DATA16_C
  Relative segment, address: 74D2 - 74DA (0x9 bytes), align: 0
  Segment part 200.           Intra module refs:   timePowerOffSetMenuOnDown
                                                   timePowerOffSetMenuOnUp
                                                   timePowerOffSetMenuShow
    -------------------------------------------------------------------------
DATA16_C
  Relative segment, address: 74DB - 74E9 (0xf bytes), align: 0
  Segment part 201.           Intra module refs:   powerTimeSetMenuShow
    -------------------------------------------------------------------------
DATA16_C
  Relative segment, address: 74EA - 74F6 (0xd bytes), align: 0
  Segment part 202.           Intra module refs:   powerTimeSetMenuShow
    -------------------------------------------------------------------------
DATA16_C
  Relative segment, address: 74F7 - 750A (0x14 bytes), align: 0
  Segment part 203.           Intra module refs:   inputNumberMenuShow
    -------------------------------------------------------------------------
DATA16_C
  Relative segment, address: 750B - 751A (0x10 bytes), align: 0
  Segment part 204.           Intra module refs:   inputNumberMenuShow
    -------------------------------------------------------------------------
DATA16_C
  Relative segment, address: 751B - 7523 (0x9 bytes), align: 0
  Segment part 205.           Intra module refs:   inputNumberMenuShow
    -------------------------------------------------------------------------
DATA16_C
  Relative segment, address: 7524 - 752E (0xb bytes), align: 0
  Segment part 206.           Intra module refs:   inputNumberMenuShow
    -------------------------------------------------------------------------
DATA16_C
  Relative segment, address: 752F - 7539 (0xb bytes), align: 0
  Segment part 207.           Intra module refs:   inputNumberMenuShow
    -------------------------------------------------------------------------
DATA16_C
  Relative segment, address: 753A - 753D (0x4 bytes), align: 0
  Segment part 208.           Intra module refs:   clewMenuOnLeft
                                                   clewMenuOnRight
                                                   clewMenuShow
                                                   inputNumberMenuOnLeft
                                                   inputNumberMenuOnRight
                                                   inputNumberMenuShow
    -------------------------------------------------------------------------
DATA16_C
  Relative segment, address: 753E - 7540 (0x3 bytes), align: 0
  Segment part 209.           Intra module refs:   clewMenuOnLeft
                                                   clewMenuOnRight
                                                   clewMenuShow
                                                   inputNumberMenuOnLeft
                                                   inputNumberMenuOnRight
                                                   inputNumberMenuShow
    -------------------------------------------------------------------------
DATA16_C
  Relative segment, address: 7541 - 754E (0xe bytes), align: 0
  Segment part 210.           Intra module refs:   clewMenuShow
    -------------------------------------------------------------------------
DATA16_C
  Relative segment, address: 754F - 755D (0xf bytes), align: 0
  Segment part 211.           Intra module refs:   clewMenuShow
    -------------------------------------------------------------------------
DATA16_C
  Relative segment, address: 755E - 756C (0xf bytes), align: 0
  Segment part 212.           Intra module refs:   clewMenuShow
    -------------------------------------------------------------------------
DATA16_C
  Relative segment, address: 756D - 7575 (0x9 bytes), align: 0
  Segment part 213.           Intra module refs:   clewMenuShow
    -------------------------------------------------------------------------
DATA16_C
  Relative segment, address: 7576 - 7584 (0xf bytes), align: 0
  Segment part 214.           Intra module refs:   calibrateFlowMenuShow
    -------------------------------------------------------------------------
DATA16_C
  Relative segment, address: 7585 - 7592 (0xe bytes), align: 0
  Segment part 215.           Intra module refs:   errFlowMenuShow
    -------------------------------------------------------------------------
DATA16_C
  Relative segment, address: 7593 - 75A2 (0x10 bytes), align: 0
  Segment part 216.           Intra module refs:   errFlowMenuShow
    -------------------------------------------------------------------------
DATA16_C
  Relative segment, address: 75A3 - 75B5 (0x13 bytes), align: 0
  Segment part 217.           Intra module refs:   errFlowMenuShow
    -------------------------------------------------------------------------
DATA16_C
  Relative segment, address: 75B6 - 75C4 (0xf bytes), align: 0
  Segment part 218.           Intra module refs:   errFlowMenuShow
    -------------------------------------------------------------------------
DATA16_C
  Relative segment, address: 75C5 - 75D3 (0xf bytes), align: 0
  Segment part 219.           Intra module refs:   errFlowMenuShow
    -------------------------------------------------------------------------
DATA16_C
  Relative segment, address: 75D4 - 75E2 (0xf bytes), align: 0
  Segment part 220.           Intra module refs:   errFlowMenuShow
    -------------------------------------------------------------------------
DATA16_C
  Relative segment, address: 75E3 - 75ED (0xb bytes), align: 0
  Segment part 221.           Intra module refs:   errFlowMenuShow
    -------------------------------------------------------------------------
DATA16_C
  Relative segment, address: 75EE - 75F1 (0x4 bytes), align: 0
  Segment part 222.           Intra module refs:   percent_show
    -------------------------------------------------------------------------
DATA16_C
  Relative segment, address: 75F2 - 75FE (0xd bytes), align: 0
  Segment part 223.           Intra module refs:   flowSetShow
    -------------------------------------------------------------------------
DATA16_C
  Relative segment, address: 75FF - 7609 (0xb bytes), align: 0
  Segment part 224.           Intra module refs:   flowSetShow
    -------------------------------------------------------------------------
DATA16_C
  Relative segment, address: 760A - 7610 (0x7 bytes), align: 0
  Segment part 225.           Intra module refs:   groupMoveFont
    -------------------------------------------------------------------------
DATA16_C
  Relative segment, address: 7611 - 7615 (0x5 bytes), align: 0
  Segment part 226.           Intra module refs:   Segment part 306
                                                   Segment part 308
    -------------------------------------------------------------------------
DATA16_C
  Relative segment, address: 7616 - 761C (0x7 bytes), align: 0
  Segment part 227.           Intra module refs:   Segment part 306
                                                   Segment part 308
    -------------------------------------------------------------------------
DATA16_C
  Relative segment, address: 761D - 7625 (0x9 bytes), align: 0
  Segment part 228.           Intra module refs:   Segment part 306
    -------------------------------------------------------------------------
DATA16_C
  Relative segment, address: 7626 - 7630 (0xb bytes), align: 0
  Segment part 229.           Intra module refs:   Segment part 306
    -------------------------------------------------------------------------
DATA16_C
  Relative segment, address: 7631 - 7639 (0x9 bytes), align: 0
  Segment part 230.           Intra module refs:   Segment part 306
                                                   Segment part 311
    -------------------------------------------------------------------------
DATA16_C
  Relative segment, address: 763A - 7640 (0x7 bytes), align: 0
  Segment part 231.           Intra module refs:   Segment part 306
                                                   Segment part 311
    -------------------------------------------------------------------------
DATA16_C
  Relative segment, address: 7641 - 7645 (0x5 bytes), align: 0
  Segment part 232.           Intra module refs:   Segment part 306
                                                   Segment part 311
    -------------------------------------------------------------------------
DATA16_C
  Relative segment, address: 7646 - 7648 (0x3 bytes), align: 0
  Segment part 233.           Intra module refs:   Segment part 306
                                                   Segment part 311
    -------------------------------------------------------------------------
DATA16_C
  Relative segment, address: 7649 - 7651 (0x9 bytes), align: 0
  Segment part 234.           Intra module refs:   Segment part 308
    -------------------------------------------------------------------------
DATA16_C
  Relative segment, address: 7652 - 765C (0xb bytes), align: 0
  Segment part 235.           Intra module refs:   Segment part 308
    -------------------------------------------------------------------------
DATA16_C
  Relative segment, address: 765D - 7665 (0x9 bytes), align: 0
  Segment part 236.           Intra module refs:   Segment part 308
                                                   Segment part 313
    -------------------------------------------------------------------------
DATA16_C
  Relative segment, address: 7666 - 766C (0x7 bytes), align: 0
  Segment part 237.           Intra module refs:   Segment part 308
                                                   Segment part 313
    -------------------------------------------------------------------------
DATA16_C
  Relative segment, address: 766D - 7671 (0x5 bytes), align: 0
  Segment part 238.           Intra module refs:   Segment part 308
                                                   Segment part 313
    -------------------------------------------------------------------------
DATA16_C
  Relative segment, address: 7672 - 7674 (0x3 bytes), align: 0
  Segment part 239.           Intra module refs:   Segment part 308
                                                   Segment part 313
    -------------------------------------------------------------------------
DATA16_C
  Relative segment, address: 7675 - 7679 (0x5 bytes), align: 0
  Segment part 240.           Intra module refs:   Segment part 311
                                                   Segment part 313
    -------------------------------------------------------------------------
DATA16_C
  Relative segment, address: 767A - 7682 (0x9 bytes), align: 0
  Segment part 241.           Intra module refs:   Segment part 311
                                                   Segment part 313
    -------------------------------------------------------------------------
DATA16_C
  Relative segment, address: 7683 - 768D (0xb bytes), align: 0
  Segment part 242.           Intra module refs:   Segment part 311
                                                   Segment part 313
    -------------------------------------------------------------------------
DATA16_C
  Relative segment, address: 768E - 7698 (0xb bytes), align: 0
  Segment part 243.           Intra module refs:   Segment part 311
    -------------------------------------------------------------------------
DATA16_C
  Relative segment, address: 7699 - 76A3 (0xb bytes), align: 0
  Segment part 244.           Intra module refs:   Segment part 311
    -------------------------------------------------------------------------
DATA16_C
  Relative segment, address: 76A4 - 76AE (0xb bytes), align: 0
  Segment part 245.           Intra module refs:   Segment part 313
    -------------------------------------------------------------------------
DATA16_C
  Relative segment, address: 76AF - 76B9 (0xb bytes), align: 0
  Segment part 246.           Intra module refs:   Segment part 313
    -------------------------------------------------------------------------
DATA16_C
  Relative segment, address: 76BA - 7731 (0x78 bytes), align: 0
  Segment part 247.           Intra module refs:   status_show
           LOCAL                   ADDRESS         
           =====                   =======         
           status_mu               76BA 
    -------------------------------------------------------------------------
DATA16_C
  Relative segment, address: 7732 - 779F (0x6e bytes), align: 0
  Segment part 248.           Intra module refs:   allSetMenuShow
                                                   calibrateFlowMenuShow
                                                   cylCyclesSetMenuShow
                                                   cylDelaySetMenuShow
                                                   cylParaSetMenuShow
                                                   cylSmpTimeSetMenuShow
                                                   flowSetShow
                                                   groupParaSetMenuShow
                                                   groupSetMenuShow
                                                   languageSetMenuShow
                                                   modSetMenuShow
                                                   powerTimeSetMenuShow
                                                   sysTimeSetMenuShow
                                                   timePowerOffSetMenuOnDown
                                                   timePowerOffSetMenuOnUp
                                                   timePowerOffSetMenuShow
           LOCAL                   ADDRESS         
           =====                   =======         
           setmod_mu               7732 
    -------------------------------------------------------------------------
DATA16_C
  Relative segment, address: 77A0 - 77B7 (0x18 bytes), align: 0
  Segment part 249.           Intra module refs:   groupSetMenuShow
                                                   languageSetMenuShow
                                                   modSetMenuShow
                                                   smpTimeMenuShow
                                                   timeViewSetMenuShow
           LOCAL                   ADDRESS         
           =====                   =======         
           left_mu                 77A0 
    -------------------------------------------------------------------------
DATA16_C
  Relative segment, address: 77B8 - 77CF (0x18 bytes), align: 0
  Segment part 250.           Intra module refs:   groupSetMenuShow
                                                   languageSetMenuShow
                                                   modSetMenuShow
                                                   smpTimeMenuShow
                                                   timeViewSetMenuShow
           LOCAL                   ADDRESS         
           =====                   =======         
           right_mu                77B8 
    -------------------------------------------------------------------------
DATA16_C
  Relative segment, address: 77D0 - 77E7 (0x18 bytes), align: 0
  Segment part 251.           Intra module refs:   calibrateFlowMenuShow
                                                   cylCyclesSetMenuShow
                                                   cylDelaySetMenuShow
                                                   cylSmpTimeSetMenuOnOk
                                                   cylSmpTimeSetMenuShow
                                                   flowSetShow
                                                   smpTimeMenuOnOk
                                                   smpTimeMenuShow
           LOCAL                   ADDRESS         
           =====                   =======         
           up_down_mu              77D0 
    -------------------------------------------------------------------------
DATA16_C
  Relative segment, address: 77E8 - 77ED (0x6 bytes), align: 0
  Segment part 252.           Intra module refs:   cylParaSetMenuShow
                                                   groupParaSetMenuShow
                                                   timePowerOffSetMenuOnDown
                                                   timePowerOffSetMenuOnUp
                                                   timePowerOffSetMenuShow
           LOCAL                   ADDRESS         
           =====                   =======         
           gundong_up_mu           77E8 
    -------------------------------------------------------------------------
DATA16_C
  Relative segment, address: 77EE - 77F3 (0x6 bytes), align: 0
  Segment part 253.           Intra module refs:   cylParaSetMenuShow
                                                   groupParaSetMenuShow
                                                   timePowerOffSetMenuOnDown
                                                   timePowerOffSetMenuOnUp
                                                   timePowerOffSetMenuShow
           LOCAL                   ADDRESS         
           =====                   =======         
           gundong_down_mu         77EE 
    -------------------------------------------------------------------------
DATA16_C
  Relative segment, address: 77F4 - 7807 (0x14 bytes), align: 0
  Segment part 254.           Intra module refs:   cylSmpTimeSetMenuOnOk
                                                   cylSmpTimeSetMenuShow
                                                   groupParaSetMenuOnOk
                                                   group_status_set
                                                   power_status_show
                                                   smpTimeMenuOnOk
                                                   smpTimeMenuShow
                                                   timePowerOffSetMenuOnOk
           LOCAL                   ADDRESS         
           =====                   =======         
           gou_mu                  77F4 
    -------------------------------------------------------------------------
DATA16_C
  Relative segment, address: 7808 - 7819 (0x12 bytes), align: 0
  Segment part 255.           Intra module refs:   calibrateFlowMenuOnLeft
                                                   manuStartMenuShow
                                                   topManuMenuOnLeft
                                                   topManuMenuOnRight
                                                   topManuMenuShow
           LOCAL                   ADDRESS         
           =====                   =======         
           jian_mu                 7808 
    -------------------------------------------------------------------------
DATA16_C
  Relative segment, address: 781A - 782B (0x12 bytes), align: 0
  Segment part 256.           Intra module refs:   calibrateFlowMenuOnRight
                                                   manuStartMenuShow
                                                   topManuMenuOnLeft
                                                   topManuMenuOnRight
                                                   topManuMenuShow
           LOCAL                   ADDRESS         
           =====                   =======         
           plus_mu                 781A 
    -------------------------------------------------------------------------
DATA16_C
  Relative segment, address: 782C - 7885 (0x5a bytes), align: 0
  Segment part 257.           Intra module refs:   batShow
           LOCAL                   ADDRESS         
           =====                   =======         
           battery_icn             782C 
    -------------------------------------------------------------------------
DATA16_C
  Relative segment, address: 7886 - 78FD (0x78 bytes), align: 0
  Segment part 258.           Intra module refs:   allSetMenuShow
                                                   cylStartMenuShow
                                                   manuStartMenuShow
                                                   timeStartMenuShow
                                                   topCylMenuShow
                                                   topManuMenuShow
                                                   topTimeMenuShow
           LOCAL                   ADDRESS         
           =====                   =======         
           status_icn              7886 
    -------------------------------------------------------------------------
DATA16_C
  Relative segment, address: 78FE - 79DD (0xe0 bytes), align: 0
  Segment part 259.           Intra module refs:   allSetMenuOnLeft
                                                   allSetMenuOnRight
                                                   allSetMenuShow
           LOCAL                   ADDRESS         
           =====                   =======         
           set_bar_mu              78FE 
    -------------------------------------------------------------------------
DATA16_I
  Relative segment, address: 1C02 - 1C0F (0xe bytes), align: 1
  Segment part 260.           Intra module refs:   allSetMenuOnLeft
                                                   allSetMenuOnRight
                                                   allSetMenuShow
           LOCAL                   ADDRESS         
           =====                   =======         
           set_bar_text            1C02 
    -------------------------------------------------------------------------
DATA16_I
  Relative segment, address: 1C10 - 1C1D (0xe bytes), align: 1
  Segment part 262.           Intra module refs:   allSetMenuOnLeft
                                                   allSetMenuOnRight
                                                   allSetMenuShow
           LOCAL                   ADDRESS         
           =====                   =======         
           set_bar_text_chn        1C10 
    -------------------------------------------------------------------------
<CODE> 2 (was CODE)
  Relative segment, address: 0002B542 - 0002B54F (0xe bytes), align: 1
  Segment part 615.           Intra module refs:   createXTask (task)
                                                   newGui
                                                   newMenu (menu)
                                                   newWindow
           ENTRY                   ADDRESS         REF BY
           =====                   =======         ======
           malloc                  0002B542 
               calls direct
               CSTACK = 00000000 ( 00000006 )
    -------------------------------------------------------------------------
DATA16_Z
  Relative segment, address: 1CAE - 1CAF (0x2 bytes), align: 1
  Segment part 264.           Intra module refs:   CwarnStopMenuOnEsc
                                                   CwarnStopMenuOnLeft
                                                   CwarnStopMenuOnOk
                                                   CwarnStopMenuOnRight
                                                   CwarnStopMenuShow
                                                   MwarnStopMenuOnEsc
                                                   MwarnStopMenuOnLeft
                                                   MwarnStopMenuOnOk
                                                   MwarnStopMenuOnRight
                                                   MwarnStopMenuShow
                                                   TwarnStopMenuOnEsc
                                                   TwarnStopMenuOnLeft
                                                   TwarnStopMenuOnOk
                                                   TwarnStopMenuOnRight
                                                   TwarnStopMenuShow
                                                   allSetMenuOnEsc
                                                   allSetMenuOnLeft
                                                   allSetMenuOnOk
                                                   allSetMenuOnRight
                                                   allSetMenuShow
                                                   batShow
                                                   batlevelExec
                                                   calibrateFlowMenuExec
                                                   calibrateFlowMenuOnEsc
                                                   calibrateFlowMenuOnLeft
                                                   calibrateFlowMenuOnOk
                                                   calibrateFlowMenuOnRight
                                                   clewMenuOnEsc
                                                   clewMenuOnLeft
                                                   clewMenuOnOk
                                                   clewMenuOnRight
                                                   clewMenuShow
                                                   cylCyclesSetMenuOnDown
                                                   cylCyclesSetMenuOnEsc
                                                   cylCyclesSetMenuOnLeft
                                                   cylCyclesSetMenuOnOk
                                                   cylCyclesSetMenuOnRight
                                                   cylCyclesSetMenuOnUp
                                                   cylCyclesSetMenuShow
                                                   cylDelaySetMenuOnDown
                                                   cylDelaySetMenuOnEsc
                                                   cylDelaySetMenuOnLeft
                                                   cylDelaySetMenuOnOk
                                                   cylDelaySetMenuOnRight
                                                   cylDelaySetMenuOnUp
                                                   cylDelaySetMenuShow
                                                   cylFlowSetMenuOnDown
                                                   cylFlowSetMenuOnEsc
                                                   cylFlowSetMenuOnLeft
                                                   cylFlowSetMenuOnOk
                                                   cylFlowSetMenuOnRight
                                                   cylFlowSetMenuOnUp
                                                   cylFlowSetMenuShow
                                                   cylParaSetMenuOnDown
                                                   cylParaSetMenuOnEsc
                                                   cylParaSetMenuOnOk
                                                   cylParaSetMenuOnUp
                                                   cylParaSetMenuShow
                                                   cylSmpTimeSetMenuOnDown
                                                   cylSmpTimeSetMenuOnEsc
                                                   cylSmpTimeSetMenuOnLeft
                                                   cylSmpTimeSetMenuOnOk
                                                   cylSmpTimeSetMenuOnRight
                                                   cylSmpTimeSetMenuOnUp
                                                   cylSmpTimeSetMenuShow
                                                   cylStartMenuOnDown
                                                   cylStartMenuOnEsc
                                                   cylStartMenuOnOk
                                                   cylStartMenuOnUp
                                                   cylStartMenuShow
                                                   cylViewMenuOnDown
                                                   cylViewMenuOnEsc
                                                   cylViewMenuOnOk
                                                   cylViewMenuOnUp
                                                   cylViewMenuShow
                                                   cylViewSetMenuOnEsc
                                                   cylViewSetMenuOnOk
                                                   cylViewSetMenuShow
                                                   cylViewStatusMenuOnEsc
                                                   cylViewStatusMenuOnOk
                                                   cylViewStatusMenuShow
                                                   errFlowMenuOnOk
                                                   errorMenuLeft
                                                   errorMenuOnOk
                                                   errorMenuShow
                                                   groupFlowSetMenuOnDown
                                                   groupFlowSetMenuOnEsc
                                                   groupFlowSetMenuOnLeft
                                                   groupFlowSetMenuOnOk
                                                   groupFlowSetMenuOnRight
                                                   groupFlowSetMenuOnUp
                                                   groupFlowSetMenuShow
                                                   groupParaSetMenuOnDown
                                                   groupParaSetMenuOnEsc
                                                   groupParaSetMenuOnOk
                                                   groupParaSetMenuOnUp
                                                   groupParaSetMenuShow
                                                   groupSetMenuOnDown
                                                   groupSetMenuOnEsc
                                                   groupSetMenuOnLeft
                                                   groupSetMenuOnOk
                                                   groupSetMenuOnRight
                                                   groupSetMenuOnUp
                                                   groupSetMenuShow
                                                   groupWarnMenuOnOk
                                                   groupWorkTimeSetMenuOnDown
                                                   groupWorkTimeSetMenuOnEsc
                                                   groupWorkTimeSetMenuOnLeft
                                                   groupWorkTimeSetMenuOnOk
                                                   groupWorkTimeSetMenuOnRight
                                                   groupWorkTimeSetMenuOnUp
                                                   groupWorkTimeSetMenuShow
                                                   inputNumberMenuOnDown
                                                   inputNumberMenuOnEsc
                                                   inputNumberMenuOnLeft
                                                   inputNumberMenuOnOk
                                                   inputNumberMenuOnRight
                                                   inputNumberMenuOnUp
                                                   inputNumberMenuShow
                                                   keyEvent
                                                   languageSetMenuOnDown
                                                   languageSetMenuOnEsc
                                                   languageSetMenuOnLeft
                                                   languageSetMenuOnOk
                                                   languageSetMenuOnRight
                                                   languageSetMenuOnUp
                                                   languageSetMenuShow
                                                   manuFlowSetMenuOnDown
                                                   manuFlowSetMenuOnEsc
                                                   manuFlowSetMenuOnLeft
                                                   manuFlowSetMenuOnOk
                                                   manuFlowSetMenuOnRight
                                                   manuFlowSetMenuOnUp
                                                   manuFlowSetMenuShow
                                                   manuStartMenuOnDown
                                                   manuStartMenuOnEsc
                                                   manuStartMenuOnOk
                                                   manuStartMenuOnUp
                                                   manuStartMenuShow
                                                   modSetMenuOnDown
                                                   modSetMenuOnEsc
                                                   modSetMenuOnLeft
                                                   modSetMenuOnOk
                                                   modSetMenuOnRight
                                                   modSetMenuOnUp
                                                   modSetMenuShow
                                                   newWindow
                                                   parameterSetMenuShow
                                                   powerTimeSetMenuOnDown
                                                   powerTimeSetMenuOnEsc
                                                   powerTimeSetMenuOnLeft
                                                   powerTimeSetMenuOnOk
                                                   powerTimeSetMenuOnRight
                                                   powerTimeSetMenuOnUp
                                                   powerTimeSetMenuShow
                                                   smpTimeMenuOnDown
                                                   smpTimeMenuOnEsc
                                                   smpTimeMenuOnLeft
                                                   smpTimeMenuOnOk
                                                   smpTimeMenuOnRight
                                                   smpTimeMenuOnUp
                                                   smpTimeMenuShow
                                                   smpTimeWarnMenuOnOk
                                                   smpTimeWarnMenuShow
                                                   sysExec
                                                   sysTimeSetMenuOnDown
                                                   sysTimeSetMenuOnEsc
                                                   sysTimeSetMenuOnLeft
                                                   sysTimeSetMenuOnOk
                                                   sysTimeSetMenuOnRight
                                                   sysTimeSetMenuOnUp
                                                   sysTimeSetMenuShow
                                                   timePowerOffSetMenuOnDown
                                                   timePowerOffSetMenuOnEsc
                                                   timePowerOffSetMenuOnOk
                                                   timePowerOffSetMenuOnUp
                                                   timePowerOffSetMenuShow
                                                   timeStartMenuOnDown
                                                   timeStartMenuOnEsc
                                                   timeStartMenuOnOk
                                                   timeStartMenuOnUp
                                                   timeStartMenuShow
                                                   timeViewMenuOnDown
                                                   timeViewMenuOnEsc
                                                   timeViewMenuOnOk
                                                   timeViewMenuOnUp
                                                   timeViewMenuShow
                                                   timeViewSetMenuOnEsc
                                                   timeViewSetMenuOnLeft
                                                   timeViewSetMenuOnOk
                                                   timeViewSetMenuOnRight
                                                   timeViewSetMenuShow
                                                   timeViewStatusMenuExec
                                                   timeViewStatusMenuOnDown
                                                   timeViewStatusMenuOnEsc
                                                   timeViewStatusMenuOnOk
                                                   timeViewStatusMenuOnUp
                                                   timeViewStatusMenuShow
                                                   topAssistMenuShow
                                                   topCylMenuOnDown
                                                   topCylMenuOnOk
                                                   topCylMenuOnUp
                                                   topCylMenuShow
                                                   topManuMenuOnDown
                                                   topManuMenuOnOk
                                                   topManuMenuOnUp
                                                   topManuMenuShow
                                                   topTimeMenuOnDown
                                                   topTimeMenuOnOk
                                                   topTimeMenuOnUp
                                                   topTimeMenuShow
                                                   twoErrMenuOkKey
           LOCAL                   ADDRESS         
           =====                   =======         
           win                     1CAE 
    -------------------------------------------------------------------------
DATA16_Z
  Relative segment, address: 1CB0 - 1CB1 (0x2 bytes), align: 1
  Segment part 265.           Intra module refs:   guiExec
                                                   newGui
           LOCAL                   ADDRESS         
           =====                   =======         
           gui                     1CB0 
    -------------------------------------------------------------------------
DATA16_Z
  Relative segment, address: 1CB2 - 1D6B (0xba bytes), align: 1
  Segment part 266.           Intra module refs:   CwarnStopMenuOnEsc
                                                   CwarnStopMenuOnLeft
                                                   CwarnStopMenuOnOk
                                                   CwarnStopMenuOnRight
                                                   CwarnStopMenuShow
                                                   InitAllPara
                                                   MwarnStopMenuOnEsc
                                                   MwarnStopMenuOnLeft
                                                   MwarnStopMenuOnOk
                                                   MwarnStopMenuOnRight
                                                   MwarnStopMenuShow
                                                   TwarnStopMenuOnEsc
                                                   TwarnStopMenuOnLeft
                                                   TwarnStopMenuOnOk
                                                   TwarnStopMenuOnRight
                                                   TwarnStopMenuShow
                                                   allSetMenuOnEsc
                                                   allSetMenuOnLeft
                                                   allSetMenuOnOk
                                                   allSetMenuOnRight
                                                   allSetMenuShow
                                                   batlevelExec
                                                   calibrateFlowMenuOnDown
                                                   calibrateFlowMenuOnLeft
                                                   calibrateFlowMenuOnOk
                                                   calibrateFlowMenuOnRight
                                                   calibrateFlowMenuOnUp
                                                   calibrateFlowMenuShow
                                                   clewMenuOnLeft
                                                   clewMenuOnOk
                                                   clewMenuOnRight
                                                   clewMenuShow
                                                   cylCyclesSetMenuOnDown
                                                   cylCyclesSetMenuOnEsc
                                                   cylCyclesSetMenuOnLeft
                                                   cylCyclesSetMenuOnOk
                                                   cylCyclesSetMenuOnRight
                                                   cylCyclesSetMenuOnUp
                                                   cylCyclesSetMenuShow
                                                   cylDelaySetMenuOnDown
                                                   cylDelaySetMenuOnEsc
                                                   cylDelaySetMenuOnLeft
                                                   cylDelaySetMenuOnOk
                                                   cylDelaySetMenuOnRight
                                                   cylDelaySetMenuOnUp
                                                   cylDelaySetMenuShow
                                                   cylFlowSetMenuOnOk
                                                   cylFlowSetMenuShow
                                                   cylParaSetMenuOnDown
                                                   cylParaSetMenuOnUp
                                                   cylParaSetMenuShow
                                                   cylSmpTimeSetMenuOnDown
                                                   cylSmpTimeSetMenuOnEsc
                                                   cylSmpTimeSetMenuOnLeft
                                                   cylSmpTimeSetMenuOnOk
                                                   cylSmpTimeSetMenuOnRight
                                                   cylSmpTimeSetMenuOnUp
                                                   cylSmpTimeSetMenuShow
                                                   cylStartMenuExec
                                                   cylStartMenuOnDown
                                                   cylStartMenuOnEsc
                                                   cylStartMenuOnUp
                                                   cylStartMenuShow
                                                   cylViewMenuOnDown
                                                   cylViewMenuOnEsc
                                                   cylViewMenuOnOk
                                                   cylViewMenuOnUp
                                                   cylViewMenuShow
                                                   cylViewSetMenuShow
                                                   cylViewStatusMenuExec
                                                   cylViewStatusMenuShow
                                                   cylsMoveFont
                                                   errFlowMenuShow
                                                   errorMenuLeft
                                                   errorMenuOnOk
                                                   errorMenuShow
                                                   flowSetDown
                                                   flowSetLeft
                                                   flowSetRight
                                                   flowSetShow
                                                   flowSetUp
                                                   flow_show
                                                   groupFlowSetMenuOnOk
                                                   groupFlowSetMenuShow
                                                   groupMoveFont
                                                   groupParaSetMenuOnDown
                                                   groupParaSetMenuOnOk
                                                   groupParaSetMenuOnUp
                                                   groupParaSetMenuShow
                                                   groupSetMenuOnDown
                                                   groupSetMenuOnLeft
                                                   groupSetMenuOnOk
                                                   groupSetMenuOnRight
                                                   groupSetMenuOnUp
                                                   groupSetMenuShow
                                                   groupWarnMenuShow
                                                   groupWorkTimeSetMenuOnDown
                                                   groupWorkTimeSetMenuOnEsc
                                                   groupWorkTimeSetMenuOnLeft
                                                   groupWorkTimeSetMenuOnOk
                                                   groupWorkTimeSetMenuOnRight
                                                   groupWorkTimeSetMenuOnUp
                                                   groupWorkTimeSetMenuShow
                                                   group_status_set
                                                   inputNumberMenuOnLeft
                                                   inputNumberMenuOnRight
                                                   inputNumberMenuShow
                                                   keyEvent
                                                   languageSetMenuOnDown
                                                   languageSetMenuOnLeft
                                                   languageSetMenuOnOk
                                                   languageSetMenuOnRight
                                                   languageSetMenuOnUp
                                                   languageSetMenuShow
                                                   manuFlowSetMenuOnEsc
                                                   manuFlowSetMenuOnOk
                                                   manuFlowSetMenuShow
                                                   manuStartMenuExec
                                                   manuStartMenuOnDown
                                                   manuStartMenuOnEsc
                                                   manuStartMenuOnLeft
                                                   manuStartMenuOnRight
                                                   manuStartMenuOnUp
                                                   manuStartMenuShow
                                                   modSetMenuExec
                                                   modSetMenuOnDown
                                                   modSetMenuOnLeft
                                                   modSetMenuOnOk
                                                   modSetMenuOnRight
                                                   modSetMenuOnUp
                                                   modSetMenuShow
                                                   parameterSetMenuShow
                                                   powerTimeSetMenuOnDown
                                                   powerTimeSetMenuOnLeft
                                                   powerTimeSetMenuOnOk
                                                   powerTimeSetMenuOnRight
                                                   powerTimeSetMenuOnUp
                                                   powerTimeSetMenuShow
                                                   power_status_show
                                                   show_time
                                                   smpTimeMenuOnDown
                                                   smpTimeMenuOnEsc
                                                   smpTimeMenuOnLeft
                                                   smpTimeMenuOnOk
                                                   smpTimeMenuOnRight
                                                   smpTimeMenuOnUp
                                                   smpTimeMenuShow
                                                   smpTimeWarnMenuShow
                                                   sysExec
                                                   sysTimeSetMenuOnDown
                                                   sysTimeSetMenuOnLeft
                                                   sysTimeSetMenuOnOk
                                                   sysTimeSetMenuOnRight
                                                   sysTimeSetMenuOnUp
                                                   sysTimeSetMenuShow
                                                   timePowerOffSetMenuOnDown
                                                   timePowerOffSetMenuOnOk
                                                   timePowerOffSetMenuOnUp
                                                   timePowerOffSetMenuShow
                                                   timeStartMenuExec
                                                   timeStartMenuOnDown
                                                   timeStartMenuOnEsc
                                                   timeStartMenuOnOk
                                                   timeStartMenuOnUp
                                                   timeStartMenuShow
                                                   timeViewMenuOnDown
                                                   timeViewMenuOnEsc
                                                   timeViewMenuOnOk
                                                   timeViewMenuOnUp
                                                   timeViewMenuShow
                                                   timeViewSetMenuOnLeft
                                                   timeViewSetMenuOnOk
                                                   timeViewSetMenuOnRight
                                                   timeViewSetMenuShow
                                                   timeViewStatusMenuExec
                                                   timeViewStatusMenuOnDown
                                                   timeViewStatusMenuOnOk
                                                   timeViewStatusMenuOnUp
                                                   timeViewStatusMenuShow
                                                   topAssistMenuShow
                                                   topCylMenuOnDown
                                                   topCylMenuOnOk
                                                   topCylMenuOnUp
                                                   topCylMenuShow
                                                   topManuMenuOnDown
                                                   topManuMenuOnLeft
                                                   topManuMenuOnOk
                                                   topManuMenuOnRight
                                                   topManuMenuOnUp
                                                   topManuMenuShow
                                                   topTimeMenuOnDown
                                                   topTimeMenuOnOk
                                                   topTimeMenuOnUp
                                                   topTimeMenuShow
                                                   twoErrMenuOkKey
                                                   twoErrMenuShow
           ENTRY                   ADDRESS         REF BY
           =====                   =======         ======
           systems                 1CB2 
    -------------------------------------------------------------------------
DATA16_Z
  Relative segment, address: 1FA4 - 1FA9 (0x6 bytes), align: 0
  Segment part 267.           Intra module refs:   inputNumberMenuOnDown
                                                   inputNumberMenuOnLeft
                                                   inputNumberMenuOnOk
                                                   inputNumberMenuOnRight
                                                   inputNumberMenuOnUp
                                                   inputNumberMenuShow
           ENTRY                   ADDRESS         REF BY
           =====                   =======         ======
           password                1FA4 
    -------------------------------------------------------------------------
<CODE> 2 (was CODE)
  Relative segment, address: 000292B2 - 00029331 (0x80 bytes), align: 1
  Segment part 614.
           ENTRY                   ADDRESS         REF BY
           =====                   =======         ======
           newGui                  000292B2        guiTask (main)
               calls direct and indirect
               CSTACK = 00000000 ( 00000006 )
    -------------------------------------------------------------------------
<CODE> 2 (was CODE)
  Relative segment, address: 0002A648 - 0002A68B (0x44 bytes), align: 1
  Segment part 613.           Intra module refs:   newGui
           ENTRY                   ADDRESS         REF BY
           =====                   =======         ======
           guiExec                 0002A648 
               calls direct and indirect
               CSTACK = 00000000 ( 00000004 )
    -------------------------------------------------------------------------
<CODE> 1 (was CODE)
  Relative segment, address: 83D2 - 9D25 (0x1954 bytes), align: 1
  Segment part 610.           Intra module refs:   newGui
           ENTRY                   ADDRESS         REF BY
           =====                   =======         ======
           newWindow               83D2 
               calls direct
               CSTACK = 00000000 ( 0000006C )
    -------------------------------------------------------------------------
<CODE> 2 (was CODE)
  Relative segment, address: 0002842A - 000284D1 (0xa8 bytes), align: 1
  Segment part 609.           Intra module refs:   newWindow
           ENTRY                   ADDRESS         REF BY
           =====                   =======         ======
           InitAllPara             0002842A 
               CSTACK = 00000000 ( 00000004 )
    -------------------------------------------------------------------------
<CODE> 2 (was CODE)
  Relative segment, address: 000251B4 - 00025303 (0x150 bytes), align: 1
  Segment part 608.           Intra module refs:   newWindow
           ENTRY                   ADDRESS         REF BY
           =====                   =======         ======
           keyEvent                000251B4 
               calls direct and indirect
               CSTACK = 00000000 ( 00000006 )
    -------------------------------------------------------------------------
<CODE> 1 (was CODE)
  Relative segment, address: D9BE - E1DB (0x81e bytes), align: 1
  Segment part 607.           Intra module refs:   keyEvent
           ENTRY                   ADDRESS         REF BY
           =====                   =======         ======
           sysExec                 D9BE 
               calls direct and indirect
               CSTACK = 00000000 ( 00000014 )
    -------------------------------------------------------------------------
DATA16_Z
  Relative segment, address: 1D6C - 1D6D (0x2 bytes), align: 1
  Segment part 271.           Intra module refs:   sysExec
           LOCAL                   ADDRESS         
           =====                   =======         
           sysExec::old_sec        1D6C 
    -------------------------------------------------------------------------
DATA16_Z
  Relative segment, address: 1D6E - 1D6F (0x2 bytes), align: 1
  Segment part 272.           Intra module refs:   sysExec
           LOCAL                   ADDRESS         
           =====                   =======         
           sysExec::old_complete   1D6E 
    -------------------------------------------------------------------------
<CODE> 2 (was CODE)
  Relative segment, address: 00029EA4 - 00029F03 (0x60 bytes), align: 1
  Segment part 606.           Intra module refs:   sysExec
           ENTRY                   ADDRESS         REF BY
           =====                   =======         ======
           batlevelExec            00029EA4 
               calls indirect
               CSTACK = 00000000 ( 00000004 )
    -------------------------------------------------------------------------
<CODE> 2 (was CODE)
  Relative segment, address: 00020BDE - 00020DF9 (0x21c bytes), align: 1
  Segment part 605.           Intra module refs:   newWindow
           ENTRY                   ADDRESS         REF BY
           =====                   =======         ======
           errorMenuShow           00020BDE 
               calls direct
               CSTACK = 00000000 ( 0000000A )
    -------------------------------------------------------------------------
<CODE> 2 (was CODE)
  Relative segment, address: 00025DB2 - 00025ED1 (0x120 bytes), align: 1
  Segment part 603.           Intra module refs:   errorMenuRight
                                                   newWindow
           ENTRY                   ADDRESS         REF BY
           =====                   =======         ======
           errorMenuLeft           00025DB2 
               calls direct
               CSTACK = 00000000 ( 0000000A )
    -------------------------------------------------------------------------
<CODE> 2 (was CODE)
  Relative segment, address: 0002B65C - 0002B65F (0x4 bytes), align: 1
  Segment part 604.           Intra module refs:   newWindow
           ENTRY                   ADDRESS         REF BY
           =====                   =======         ======
           errorMenuRight          0002B65C 
               calls direct
               CSTACK = 00000000 ( 00000004 )
    -------------------------------------------------------------------------
<CODE> 2 (was CODE)
  Relative segment, address: 00023E28 - 00023FA1 (0x17a bytes), align: 1
  Segment part 602.           Intra module refs:   newWindow
           ENTRY                   ADDRESS         REF BY
           =====                   =======         ======
           errorMenuOnOk           00023E28 
               calls direct and indirect
               CSTACK = 00000000 ( 00000006 )
    -------------------------------------------------------------------------
<CODE> 2 (was CODE)
  Relative segment, address: 0001F806 - 0001FA45 (0x240 bytes), align: 1
  Segment part 601.           Intra module refs:   newWindow
           LOCAL                   ADDRESS         
           =====                   =======         
           twoErrMenuShow          0001F806 
               calls direct
               CSTACK = 00000000 ( 00000006 )
    -------------------------------------------------------------------------
<CODE> 2 (was CODE)
  Relative segment, address: 0002792C - 000279F9 (0xce bytes), align: 1
  Segment part 600.           Intra module refs:   newWindow
           LOCAL                   ADDRESS         
           =====                   =======         
           twoErrMenuOkKey         0002792C 
               calls direct and indirect
               CSTACK = 00000000 ( 00000006 )
    -------------------------------------------------------------------------
<CODE> 2 (was CODE)
  Relative segment, address: 00019DD4 - 0001A0FD (0x32a bytes), align: 1
  Segment part 477.           Intra module refs:   allSetMenuExec
                                                   allSetMenuShow
                                                   cylStartMenuExec
                                                   cylStartMenuShow
                                                   manuStartMenuExec
                                                   manuStartMenuShow
                                                   timeStartMenuExec
                                                   timeStartMenuShow
                                                   topCylMenuExec
                                                   topCylMenuShow
                                                   topManuMenuExec
                                                   topManuMenuShow
                                                   topTimeMenuExec
                                                   topTimeMenuShow
           ENTRY                   ADDRESS         REF BY
           =====                   =======         ======
           batShow                 00019DD4 
               calls direct
               CSTACK = 00000000 ( 0000000A )
    -------------------------------------------------------------------------
DATA16_Z
  Relative segment, address: 1D70 - 1D71 (0x2 bytes), align: 1
  Segment part 273.           Intra module refs:   batShow
           LOCAL                   ADDRESS         
           =====                   =======         
           batShow::oldLevel       1D70 
    -------------------------------------------------------------------------
DATA16_Z
  Relative segment, address: 1D72 - 1D73 (0x2 bytes), align: 1
  Segment part 274.           Intra module refs:   batShow
           LOCAL                   ADDRESS         
           =====                   =======         
           batShow::batCount       1D72 
    -------------------------------------------------------------------------
DATA16_Z
  Relative segment, address: 1D74 - 1D75 (0x2 bytes), align: 1
  Segment part 275.           Intra module refs:   batShow
           LOCAL                   ADDRESS         
           =====                   =======         
           batShow::modInter       1D74 
    -------------------------------------------------------------------------
<CODE> 2 (was CODE)
  Relative segment, address: 00023696 - 0002381D (0x188 bytes), align: 1
  Segment part 599.           Intra module refs:   newWindow
           ENTRY                   ADDRESS         REF BY
           =====                   =======         ======
           topAssistMenuShow       00023696 
               calls indirect
               CSTACK = 00000000 ( 00000006 )
    -------------------------------------------------------------------------
<CODE> 2 (was CODE)
  Relative segment, address: 00013DCA - 000142C1 (0x4f8 bytes), align: 1
  Segment part 598.           Intra module refs:   newWindow
           ENTRY                   ADDRESS         REF BY
           =====                   =======         ======
           topManuMenuShow         00013DCA 
               calls direct
               CSTACK = 00000000 ( 0000000E )
    -------------------------------------------------------------------------
<CODE> 2 (was CODE)
  Relative segment, address: 00021D42 - 00021F1F (0x1de bytes), align: 1
  Segment part 597.           Intra module refs:   newWindow
           ENTRY                   ADDRESS         REF BY
           =====                   =======         ======
           topManuMenuOnUp         00021D42 
               calls direct
               CSTACK = 00000000 ( 0000000A )
    -------------------------------------------------------------------------
<CODE> 2 (was CODE)
  Relative segment, address: 00021B64 - 00021D41 (0x1de bytes), align: 1
  Segment part 596.           Intra module refs:   newWindow
           ENTRY                   ADDRESS         REF BY
           =====                   =======         ======
           topManuMenuOnDown       00021B64 
               calls direct
               CSTACK = 00000000 ( 0000000A )
    -------------------------------------------------------------------------
<CODE> 2 (was CODE)
  Relative segment, address: 00027DE6 - 00027EA7 (0xc2 bytes), align: 1
  Segment part 595.           Intra module refs:   newWindow
           ENTRY                   ADDRESS         REF BY
           =====                   =======         ======
           topManuMenuOnLeft       00027DE6 
               calls direct
               CSTACK = 00000000 ( 0000000C )
    -------------------------------------------------------------------------
<CODE> 2 (was CODE)
  Relative segment, address: 00027D24 - 00027DE5 (0xc2 bytes), align: 1
  Segment part 594.           Intra module refs:   newWindow
           ENTRY                   ADDRESS         REF BY
           =====                   =======         ======
           topManuMenuOnRight      00027D24 
               calls direct
               CSTACK = 00000000 ( 0000000C )
    -------------------------------------------------------------------------
<CODE> 2 (was CODE)
  Relative segment, address: 00027B94 - 00027C5F (0xcc bytes), align: 1
  Segment part 593.           Intra module refs:   newWindow
           ENTRY                   ADDRESS         REF BY
           =====                   =======         ======
           topManuMenuOnOk         00027B94 
               calls direct and indirect
               CSTACK = 00000000 ( 00000006 )
    -------------------------------------------------------------------------
<CODE> 2 (was CODE)
  Relative segment, address: 0002B57A - 0002B585 (0xc bytes), align: 1
  Segment part 591.           Intra module refs:   newWindow
           ENTRY                   ADDRESS         REF BY
           =====                   =======         ======
           topManuMenuExec         0002B57A 
               calls direct
               CSTACK = 00000000 ( 00000004 )
    -------------------------------------------------------------------------
<CODE> 2 (was CODE)
  Relative segment, address: 00017994 - 00017D05 (0x372 bytes), align: 1
  Segment part 590.           Intra module refs:   newWindow
           ENTRY                   ADDRESS         REF BY
           =====                   =======         ======
           topTimeMenuShow         00017994 
               calls direct
               CSTACK = 00000000 ( 0000000C )
    -------------------------------------------------------------------------
<CODE> 2 (was CODE)
  Relative segment, address: 000246B0 - 00024815 (0x166 bytes), align: 1
  Segment part 589.           Intra module refs:   newWindow
           ENTRY                   ADDRESS         REF BY
           =====                   =======         ======
           topTimeMenuOnUp         000246B0 
               calls direct
               CSTACK = 00000000 ( 0000000A )
    -------------------------------------------------------------------------
<CODE> 2 (was CODE)
  Relative segment, address: 0002454A - 000246AF (0x166 bytes), align: 1
  Segment part 588.           Intra module refs:   newWindow
           ENTRY                   ADDRESS         REF BY
           =====                   =======         ======
           topTimeMenuOnDown       0002454A 
               calls direct
               CSTACK = 00000000 ( 0000000A )
    -------------------------------------------------------------------------
<CODE> 2 (was CODE)
  Relative segment, address: 0002544E - 0002558B (0x13e bytes), align: 1
  Segment part 587.           Intra module refs:   newWindow
           ENTRY                   ADDRESS         REF BY
           =====                   =======         ======
           topTimeMenuOnOk         0002544E 
               calls indirect
               CSTACK = 00000000 ( 00000010 )
    -------------------------------------------------------------------------
<CODE> 2 (was CODE)
  Relative segment, address: 0002B586 - 0002B591 (0xc bytes), align: 1
  Segment part 585.           Intra module refs:   newWindow
           ENTRY                   ADDRESS         REF BY
           =====                   =======         ======
           topTimeMenuExec         0002B586 
               calls direct
               CSTACK = 00000000 ( 00000004 )
    -------------------------------------------------------------------------
<CODE> 2 (was CODE)
  Relative segment, address: 00016EFA - 000172A3 (0x3aa bytes), align: 1
  Segment part 584.           Intra module refs:   newWindow
           ENTRY                   ADDRESS         REF BY
           =====                   =======         ======
           topCylMenuShow          00016EFA 
               calls direct
               CSTACK = 00000000 ( 0000000C )
    -------------------------------------------------------------------------
<CODE> 2 (was CODE)
  Relative segment, address: 0002497C - 00024AE1 (0x166 bytes), align: 1
  Segment part 583.           Intra module refs:   newWindow
           ENTRY                   ADDRESS         REF BY
           =====                   =======         ======
           topCylMenuOnUp          0002497C 
               calls direct
               CSTACK = 00000000 ( 0000000A )
    -------------------------------------------------------------------------
<CODE> 2 (was CODE)
  Relative segment, address: 00024816 - 0002497B (0x166 bytes), align: 1
  Segment part 582.           Intra module refs:   newWindow
           ENTRY                   ADDRESS         REF BY
           =====                   =======         ======
           topCylMenuOnDown        00024816 
               calls direct
               CSTACK = 00000000 ( 0000000A )
    -------------------------------------------------------------------------
<CODE> 2 (was CODE)
  Relative segment, address: 00027AC8 - 00027B93 (0xcc bytes), align: 1
  Segment part 581.           Intra module refs:   newWindow
           ENTRY                   ADDRESS         REF BY
           =====                   =======         ======
           topCylMenuOnOk          00027AC8 
               calls direct and indirect
               CSTACK = 00000000 ( 00000006 )
    -------------------------------------------------------------------------
<CODE> 2 (was CODE)
  Relative segment, address: 0002B5B6 - 0002B5C1 (0xc bytes), align: 1
  Segment part 579.           Intra module refs:   newWindow
           ENTRY                   ADDRESS         REF BY
           =====                   =======         ======
           topCylMenuExec          0002B5B6 
               calls direct
               CSTACK = 00000000 ( 00000004 )
    -------------------------------------------------------------------------
<CODE> 2 (was CODE)
  Relative segment, address: 000155B6 - 00015A39 (0x484 bytes), align: 1
  Segment part 578.           Intra module refs:   newWindow
           ENTRY                   ADDRESS         REF BY
           =====                   =======         ======
           manuStartMenuShow       000155B6 
               calls direct
               CSTACK = 00000000 ( 0000000E )
    -------------------------------------------------------------------------
<CODE> 2 (was CODE)
  Relative segment, address: 000217A8 - 00021985 (0x1de bytes), align: 1
  Segment part 577.           Intra module refs:   newWindow
           ENTRY                   ADDRESS         REF BY
           =====                   =======         ======
           manuStartMenuOnUp       000217A8 
               calls direct
               CSTACK = 00000000 ( 0000000A )
    -------------------------------------------------------------------------
<CODE> 2 (was CODE)
  Relative segment, address: 00021986 - 00021B63 (0x1de bytes), align: 1
  Segment part 576.           Intra module refs:   newWindow
           ENTRY                   ADDRESS         REF BY
           =====                   =======         ======
           manuStartMenuOnDown     00021986 
               calls direct
               CSTACK = 00000000 ( 0000000A )
    -------------------------------------------------------------------------
<CODE> 2 (was CODE)
  Relative segment, address: 00029018 - 000290A1 (0x8a bytes), align: 1
  Segment part 575.           Intra module refs:   newWindow
           ENTRY                   ADDRESS         REF BY
           =====                   =======         ======
           manuStartMenuOnLeft     00029018 
               calls direct
               CSTACK = 00000000 ( 00000004 )
    -------------------------------------------------------------------------
<CODE> 2 (was CODE)
  Relative segment, address: 00028F8E - 00029017 (0x8a bytes), align: 1
  Segment part 574.           Intra module refs:   newWindow
           ENTRY                   ADDRESS         REF BY
           =====                   =======         ======
           manuStartMenuOnRight    00028F8E 
               calls direct
               CSTACK = 00000000 ( 00000004 )
    -------------------------------------------------------------------------
<CODE> 2 (was CODE)
  Relative segment, address: 0002857A - 0002861D (0xa4 bytes), align: 1
  Segment part 573.           Intra module refs:   newWindow
           ENTRY                   ADDRESS         REF BY
           =====                   =======         ======
           manuStartMenuOnOk       0002857A 
               calls indirect
               CSTACK = 00000000 ( 00000006 )
    -------------------------------------------------------------------------
<CODE> 2 (was CODE)
  Relative segment, address: 0002912C - 000291AD (0x82 bytes), align: 1
  Segment part 572.           Intra module refs:   newWindow
           ENTRY                   ADDRESS         REF BY
           =====                   =======         ======
           manuStartMenuOnEsc      0002912C 
               calls direct and indirect
               CSTACK = 00000000 ( 00000006 )
    -------------------------------------------------------------------------
<CODE> 2 (was CODE)
  Relative segment, address: 0002785A - 0002792B (0xd2 bytes), align: 1
  Segment part 571.           Intra module refs:   newWindow
           ENTRY                   ADDRESS         REF BY
           =====                   =======         ======
           manuStartMenuExec       0002785A 
               calls direct
               CSTACK = 00000000 ( 00000004 )
    -------------------------------------------------------------------------
DATA16_Z
  Relative segment, address: 1FAA - 1FAA (0x1 bytes), align: 0
  Segment part 276.           Intra module refs:   manuStartMenuExec
           LOCAL                   ADDRESS         
           =====                   =======         
           manuStartMenuExec::old_status
                                   1FAA 
    -------------------------------------------------------------------------
DATA16_Z
  Relative segment, address: 1D76 - 1D77 (0x2 bytes), align: 1
  Segment part 277.           Intra module refs:   manuStartMenuExec
           LOCAL                   ADDRESS         
           =====                   =======         
           manuStartMenuExec::old_flow
                                   1D76 
    -------------------------------------------------------------------------
DATA16_Z
  Relative segment, address: 1D78 - 1D79 (0x2 bytes), align: 1
  Segment part 278.           Intra module refs:   manuStartMenuExec
           LOCAL                   ADDRESS         
           =====                   =======         
           manuStartMenuExec::old_used_time
                                   1D78 
    -------------------------------------------------------------------------
DATA16_Z
  Relative segment, address: 1D7A - 1D7B (0x2 bytes), align: 1
  Segment part 279.           Intra module refs:   manuStartMenuExec
           LOCAL                   ADDRESS         
           =====                   =======         
           manuStartMenuExec::old_start_sec
                                   1D7A 
    -------------------------------------------------------------------------
DATA16_Z
  Relative segment, address: 1D7C - 1D7F (0x4 bytes), align: 1
  Segment part 280.           Intra module refs:   manuStartMenuExec
           LOCAL                   ADDRESS         
           =====                   =======         
           manuStartMenuExec::old_percent
                                   1D7C 
    -------------------------------------------------------------------------
<CODE> 2 (was CODE)
  Relative segment, address: 000231DC - 00023375 (0x19a bytes), align: 1
  Segment part 570.           Intra module refs:   newWindow
           ENTRY                   ADDRESS         REF BY
           =====                   =======         ======
           MwarnStopMenuShow       000231DC 
               calls direct
               CSTACK = 00000000 ( 0000000A )
    -------------------------------------------------------------------------
<CODE> 2 (was CODE)
  Relative segment, address: 0002706E - 0002715B (0xee bytes), align: 1
  Segment part 569.           Intra module refs:   newWindow
           ENTRY                   ADDRESS         REF BY
           =====                   =======         ======
           MwarnStopMenuOnLeft     0002706E 
               calls direct
               CSTACK = 00000000 ( 0000000A )
    -------------------------------------------------------------------------
<CODE> 2 (was CODE)
  Relative segment, address: 0002715C - 00027249 (0xee bytes), align: 1
  Segment part 568.           Intra module refs:   newWindow
           ENTRY                   ADDRESS         REF BY
           =====                   =======         ======
           MwarnStopMenuOnRight    0002715C 
               calls direct
               CSTACK = 00000000 ( 0000000A )
    -------------------------------------------------------------------------
<CODE> 2 (was CODE)
  Relative segment, address: 00028382 - 00028429 (0xa8 bytes), align: 1
  Segment part 567.           Intra module refs:   newWindow
           ENTRY                   ADDRESS         REF BY
           =====                   =======         ======
           MwarnStopMenuOnOk       00028382 
               calls direct and indirect
               CSTACK = 00000000 ( 00000008 )
    -------------------------------------------------------------------------
<CODE> 2 (was CODE)
  Relative segment, address: 00029CB0 - 00029D15 (0x66 bytes), align: 1
  Segment part 566.           Intra module refs:   newWindow
           ENTRY                   ADDRESS         REF BY
           =====                   =======         ======
           MwarnStopMenuOnEsc      00029CB0 
               calls direct and indirect
               CSTACK = 00000000 ( 00000006 )
    -------------------------------------------------------------------------
<CODE> 2 (was CODE)
  Relative segment, address: 00017D06 - 0001806B (0x366 bytes), align: 1
  Segment part 565.           Intra module refs:   newWindow
           ENTRY                   ADDRESS         REF BY
           =====                   =======         ======
           timeStartMenuShow       00017D06 
               calls direct and indirect
               CSTACK = 00000000 ( 00000012 )
    -------------------------------------------------------------------------
<CODE> 2 (was CODE)
  Relative segment, address: 00024C48 - 00024DAD (0x166 bytes), align: 1
  Segment part 564.           Intra module refs:   newWindow
           ENTRY                   ADDRESS         REF BY
           =====                   =======         ======
           timeStartMenuOnUp       00024C48 
               calls direct
               CSTACK = 00000000 ( 0000000A )
    -------------------------------------------------------------------------
<CODE> 2 (was CODE)
  Relative segment, address: 0002427E - 000243E3 (0x166 bytes), align: 1
  Segment part 563.           Intra module refs:   newWindow
           ENTRY                   ADDRESS         REF BY
           =====                   =======         ======
           timeStartMenuOnDown     0002427E 
               calls direct
               CSTACK = 00000000 ( 0000000A )
    -------------------------------------------------------------------------
<CODE> 2 (was CODE)
  Relative segment, address: 0002B688 - 0002B689 (0x2 bytes), align: 1
  Segment part 562.           Intra module refs:   newWindow
           ENTRY                   ADDRESS         REF BY
           =====                   =======         ======
           timeStartMenuOnLeft     0002B688 
               CSTACK = 00000000 ( 00000004 )
    -------------------------------------------------------------------------
<CODE> 2 (was CODE)
  Relative segment, address: 0002B69E - 0002B69F (0x2 bytes), align: 1
  Segment part 561.           Intra module refs:   newWindow
           ENTRY                   ADDRESS         REF BY
           =====                   =======         ======
           timeStartMenuOnRight    0002B69E 
               CSTACK = 00000000 ( 00000004 )
    -------------------------------------------------------------------------
<CODE> 2 (was CODE)
  Relative segment, address: 000279FA - 00027AC7 (0xce bytes), align: 1
  Segment part 560.           Intra module refs:   newWindow
           ENTRY                   ADDRESS         REF BY
           =====                   =======         ======
           timeStartMenuOnOk       000279FA 
               calls indirect
               CSTACK = 00000000 ( 0000000C )
    -------------------------------------------------------------------------
<CODE> 2 (was CODE)
  Relative segment, address: 00029528 - 000295A1 (0x7a bytes), align: 1
  Segment part 559.           Intra module refs:   newWindow
           ENTRY                   ADDRESS         REF BY
           =====                   =======         ======
           timeStartMenuOnEsc      00029528 
               calls direct and indirect
               CSTACK = 00000000 ( 00000006 )
    -------------------------------------------------------------------------
<CODE> 2 (was CODE)
  Relative segment, address: 0002558C - 000256BF (0x134 bytes), align: 1
  Segment part 558.           Intra module refs:   newWindow
           ENTRY                   ADDRESS         REF BY
           =====                   =======         ======
           timeStartMenuExec       0002558C 
               calls direct
               CSTACK = 00000000 ( 00000006 )
    -------------------------------------------------------------------------
DATA16_Z
  Relative segment, address: 1D80 - 1D81 (0x2 bytes), align: 1
  Segment part 281.           Intra module refs:   timeStartMenuExec
           LOCAL                   ADDRESS         
           =====                   =======         
           timeStartMenuExec::old_dynamic_flow
                                   1D80 
    -------------------------------------------------------------------------
DATA16_Z
  Relative segment, address: 1D82 - 1D83 (0x2 bytes), align: 1
  Segment part 282.           Intra module refs:   timeStartMenuExec
           LOCAL                   ADDRESS         
           =====                   =======         
           timeStartMenuExec::old_used_time
                                   1D82 
    -------------------------------------------------------------------------
DATA16_Z
  Relative segment, address: 1D84 - 1D85 (0x2 bytes), align: 1
  Segment part 283.           Intra module refs:   timeStartMenuExec
           LOCAL                   ADDRESS         
           =====                   =======         
           timeStartMenuExec::old_sec
                                   1D84 
    -------------------------------------------------------------------------
DATA16_Z
  Relative segment, address: 1D86 - 1D87 (0x2 bytes), align: 1
  Segment part 284.           Intra module refs:   timeStartMenuExec
           LOCAL                   ADDRESS         
           =====                   =======         
           timeStartMenuExec::sec
                                   1D86 
    -------------------------------------------------------------------------
DATA16_Z
  Relative segment, address: 1D88 - 1D89 (0x2 bytes), align: 1
  Segment part 285.           Intra module refs:   timeStartMenuExec
           LOCAL                   ADDRESS         
           =====                   =======         
           timeStartMenuExec::old_start_sec
                                   1D88 
    -------------------------------------------------------------------------
DATA16_Z
  Relative segment, address: 1D8A - 1D8B (0x2 bytes), align: 1
  Segment part 286.           Intra module refs:   timeStartMenuExec
           LOCAL                   ADDRESS         
           =====                   =======         
           timeStartMenuExec::old_status
                                   1D8A 
    -------------------------------------------------------------------------
DATA16_Z
  Relative segment, address: 1D8C - 1D8F (0x4 bytes), align: 1
  Segment part 287.           Intra module refs:   timeStartMenuExec
           LOCAL                   ADDRESS         
           =====                   =======         
           timeStartMenuExec::old_percent
                                   1D8C 
    -------------------------------------------------------------------------
<CODE> 2 (was CODE)
  Relative segment, address: 0001E6DE - 0001E963 (0x286 bytes), align: 1
  Segment part 557.           Intra module refs:   newWindow
           ENTRY                   ADDRESS         REF BY
           =====                   =======         ======
           TwarnStopMenuShow       0001E6DE 
               calls direct
               CSTACK = 00000000 ( 00000010 )
    -------------------------------------------------------------------------
<CODE> 2 (was CODE)
  Relative segment, address: 00026210 - 0002631D (0x10e bytes), align: 1
  Segment part 556.           Intra module refs:   newWindow
           ENTRY                   ADDRESS         REF BY
           =====                   =======         ======
           TwarnStopMenuOnLeft     00026210 
               calls direct
               CSTACK = 00000000 ( 0000000A )
    -------------------------------------------------------------------------
<CODE> 2 (was CODE)
  Relative segment, address: 00026756 - 00026863 (0x10e bytes), align: 1
  Segment part 555.           Intra module refs:   newWindow
           ENTRY                   ADDRESS         REF BY
           =====                   =======         ======
           TwarnStopMenuOnRight    00026756 
               calls direct
               CSTACK = 00000000 ( 0000000A )
    -------------------------------------------------------------------------
<CODE> 2 (was CODE)
  Relative segment, address: 00028762 - 00028801 (0xa0 bytes), align: 1
  Segment part 554.           Intra module refs:   newWindow
           ENTRY                   ADDRESS         REF BY
           =====                   =======         ======
           TwarnStopMenuOnOk       00028762 
               calls direct and indirect
               CSTACK = 00000000 ( 00000008 )
    -------------------------------------------------------------------------
<CODE> 2 (was CODE)
  Relative segment, address: 00029D16 - 00029D7B (0x66 bytes), align: 1
  Segment part 553.           Intra module refs:   newWindow
           ENTRY                   ADDRESS         REF BY
           =====                   =======         ======
           TwarnStopMenuOnEsc      00029D16 
               calls direct and indirect
               CSTACK = 00000000 ( 00000006 )
    -------------------------------------------------------------------------
<CODE> 2 (was CODE)
  Relative segment, address: 00019768 - 00019A9D (0x336 bytes), align: 1
  Segment part 552.           Intra module refs:   newWindow
           ENTRY                   ADDRESS         REF BY
           =====                   =======         ======
           cylStartMenuShow        00019768 
               calls direct
               CSTACK = 00000000 ( 0000000C )
    -------------------------------------------------------------------------
<CODE> 2 (was CODE)
  Relative segment, address: 000243E4 - 00024549 (0x166 bytes), align: 1
  Segment part 551.           Intra module refs:   newWindow
           ENTRY                   ADDRESS         REF BY
           =====                   =======         ======
           cylStartMenuOnUp        000243E4 
               calls direct
               CSTACK = 00000000 ( 0000000A )
    -------------------------------------------------------------------------
<CODE> 2 (was CODE)
  Relative segment, address: 00024AE2 - 00024C47 (0x166 bytes), align: 1
  Segment part 550.           Intra module refs:   newWindow
           ENTRY                   ADDRESS         REF BY
           =====                   =======         ======
           cylStartMenuOnDown      00024AE2 
               calls direct
               CSTACK = 00000000 ( 0000000A )
    -------------------------------------------------------------------------
<CODE> 2 (was CODE)
  Relative segment, address: 0002B674 - 0002B675 (0x2 bytes), align: 1
  Segment part 549.           Intra module refs:   newWindow
           ENTRY                   ADDRESS         REF BY
           =====                   =======         ======
           cylStartMenuOnLeft      0002B674 
               CSTACK = 00000000 ( 00000004 )
    -------------------------------------------------------------------------
<CODE> 2 (was CODE)
  Relative segment, address: 0002B6AA - 0002B6AB (0x2 bytes), align: 1
  Segment part 548.           Intra module refs:   newWindow
           ENTRY                   ADDRESS         REF BY
           =====                   =======         ======
           cylStartMenuOnRight     0002B6AA 
               CSTACK = 00000000 ( 00000004 )
    -------------------------------------------------------------------------
<CODE> 2 (was CODE)
  Relative segment, address: 0002861E - 000286C1 (0xa4 bytes), align: 1
  Segment part 547.           Intra module refs:   newWindow
           ENTRY                   ADDRESS         REF BY
           =====                   =======         ======
           cylStartMenuOnOk        0002861E 
               calls indirect
               CSTACK = 00000000 ( 00000006 )
    -------------------------------------------------------------------------
<CODE> 2 (was CODE)
  Relative segment, address: 0002A01C - 0002A077 (0x5c bytes), align: 1
  Segment part 546.           Intra module refs:   newWindow
           ENTRY                   ADDRESS         REF BY
           =====                   =======         ======
           cylStartMenuOnEsc       0002A01C 
               calls direct and indirect
               CSTACK = 00000000 ( 00000006 )
    -------------------------------------------------------------------------
<CODE> 2 (was CODE)
  Relative segment, address: 00026F7A - 0002706D (0xf4 bytes), align: 1
  Segment part 545.           Intra module refs:   newWindow
           ENTRY                   ADDRESS         REF BY
           =====                   =======         ======
           cylStartMenuExec        00026F7A 
               calls direct
               CSTACK = 00000000 ( 00000004 )
    -------------------------------------------------------------------------
DATA16_Z
  Relative segment, address: 1D90 - 1D91 (0x2 bytes), align: 1
  Segment part 288.           Intra module refs:   cylStartMenuExec
           LOCAL                   ADDRESS         
           =====                   =======         
           cylStartMenuExec::old_dynamic_flow
                                   1D90 
    -------------------------------------------------------------------------
DATA16_Z
  Relative segment, address: 1D92 - 1D93 (0x2 bytes), align: 1
  Segment part 289.           Intra module refs:   cylStartMenuExec
           LOCAL                   ADDRESS         
           =====                   =======         
           cylStartMenuExec::old_used_time
                                   1D92 
    -------------------------------------------------------------------------
DATA16_Z
  Relative segment, address: 1D94 - 1D95 (0x2 bytes), align: 1
  Segment part 290.           Intra module refs:   cylStartMenuExec
           LOCAL                   ADDRESS         
           =====                   =======         
           cylStartMenuExec::old_start_sec
                                   1D94 
    -------------------------------------------------------------------------
DATA16_Z
  Relative segment, address: 1D96 - 1D97 (0x2 bytes), align: 1
  Segment part 291.           Intra module refs:   cylStartMenuExec
           LOCAL                   ADDRESS         
           =====                   =======         
           cylStartMenuExec::old_status
                                   1D96 
    -------------------------------------------------------------------------
DATA16_Z
  Relative segment, address: 1D98 - 1D9B (0x4 bytes), align: 1
  Segment part 292.           Intra module refs:   cylStartMenuExec
           LOCAL                   ADDRESS         
           =====                   =======         
           cylStartMenuExec::old_percent
                                   1D98 
    -------------------------------------------------------------------------
DATA16_Z
  Relative segment, address: 1D9C - 1D9D (0x2 bytes), align: 1
  Segment part 293.           Intra module refs:   cylStartMenuExec
           LOCAL                   ADDRESS         
           =====                   =======         
           cylStartMenuExec::old_sec
                                   1D9C 
    -------------------------------------------------------------------------
<CODE> 2 (was CODE)
  Relative segment, address: 00020DFA - 00020FEF (0x1f6 bytes), align: 1
  Segment part 544.           Intra module refs:   newWindow
           ENTRY                   ADDRESS         REF BY
           =====                   =======         ======
           CwarnStopMenuShow       00020DFA 
               calls direct
               CSTACK = 00000000 ( 0000000A )
    -------------------------------------------------------------------------
<CODE> 2 (was CODE)
  Relative segment, address: 0002631E - 0002642B (0x10e bytes), align: 1
  Segment part 543.           Intra module refs:   newWindow
           ENTRY                   ADDRESS         REF BY
           =====                   =======         ======
           CwarnStopMenuOnLeft     0002631E 
               calls direct
               CSTACK = 00000000 ( 0000000A )
    -------------------------------------------------------------------------
<CODE> 2 (was CODE)
  Relative segment, address: 00026648 - 00026755 (0x10e bytes), align: 1
  Segment part 542.           Intra module refs:   newWindow
           ENTRY                   ADDRESS         REF BY
           =====                   =======         ======
           CwarnStopMenuOnRight    00026648 
               calls direct
               CSTACK = 00000000 ( 0000000A )
    -------------------------------------------------------------------------
<CODE> 2 (was CODE)
  Relative segment, address: 000284D2 - 00028579 (0xa8 bytes), align: 1
  Segment part 541.           Intra module refs:   newWindow
           ENTRY                   ADDRESS         REF BY
           =====                   =======         ======
           CwarnStopMenuOnOk       000284D2 
               calls direct and indirect
               CSTACK = 00000000 ( 00000008 )
    -------------------------------------------------------------------------
<CODE> 2 (was CODE)
  Relative segment, address: 000286C2 - 00028761 (0xa0 bytes), align: 1
  Segment part 540.           Intra module refs:   newWindow
           ENTRY                   ADDRESS         REF BY
           =====                   =======         ======
           CwarnStopMenuOnEsc      000286C2 
               calls direct and indirect
               CSTACK = 00000000 ( 00000008 )
    -------------------------------------------------------------------------
<CODE> 1 (was CODE)
  Relative segment, address: B348 - C38D (0x1046 bytes), align: 1
  Segment part 539.           Intra module refs:   newWindow
           ENTRY                   ADDRESS         REF BY
           =====                   =======         ======
           smpTimeMenuShow         B348 
               calls direct
               CSTACK = 00000000 ( 00000018 )
    -------------------------------------------------------------------------
<CODE> 2 (was CODE)
  Relative segment, address: 0001A9FA - 0001ACF1 (0x2f8 bytes), align: 1
  Segment part 538.           Intra module refs:   newWindow
           ENTRY                   ADDRESS         REF BY
           =====                   =======         ======
           smpTimeMenuOnUp         0001A9FA 
               calls direct
               CSTACK = 00000000 ( 00000010 )
    -------------------------------------------------------------------------
<CODE> 2 (was CODE)
  Relative segment, address: 0001A3FE - 0001A6FB (0x2fe bytes), align: 1
  Segment part 537.           Intra module refs:   newWindow
           ENTRY                   ADDRESS         REF BY
           =====                   =======         ======
           smpTimeMenuOnDown       0001A3FE 
               calls direct
               CSTACK = 00000000 ( 00000010 )
    -------------------------------------------------------------------------
<CODE> 2 (was CODE)
  Relative segment, address: 00011E56 - 000123B1 (0x55c bytes), align: 1
  Segment part 536.           Intra module refs:   newWindow
           ENTRY                   ADDRESS         REF BY
           =====                   =======         ======
           smpTimeMenuOnLeft       00011E56 
               calls direct
               CSTACK = 00000000 ( 00000012 )
    -------------------------------------------------------------------------
<CODE> 2 (was CODE)
  Relative segment, address: 0001290E - 00012E69 (0x55c bytes), align: 1
  Segment part 535.           Intra module refs:   newWindow
           ENTRY                   ADDRESS         REF BY
           =====                   =======         ======
           smpTimeMenuOnRight      0001290E 
               calls direct
               CSTACK = 00000000 ( 00000012 )
    -------------------------------------------------------------------------
<CODE> 2 (was CODE)
  Relative segment, address: 00015E96 - 000162DB (0x446 bytes), align: 1
  Segment part 534.           Intra module refs:   newWindow
           ENTRY                   ADDRESS         REF BY
           =====                   =======         ======
           smpTimeMenuOnOk         00015E96 
               calls direct and indirect
               CSTACK = 00000000 ( 00000018 )
    -------------------------------------------------------------------------
<CODE> 2 (was CODE)
  Relative segment, address: 0002970C - 00029783 (0x78 bytes), align: 1
  Segment part 533.           Intra module refs:   newWindow
           ENTRY                   ADDRESS         REF BY
           =====                   =======         ======
           smpTimeMenuOnEsc        0002970C 
               calls indirect
               CSTACK = 00000000 ( 00000006 )
    -------------------------------------------------------------------------
<CODE> 2 (was CODE)
  Relative segment, address: 0002B684 - 0002B685 (0x2 bytes), align: 1
  Segment part 532.           Intra module refs:   newWindow
           ENTRY                   ADDRESS         REF BY
           =====                   =======         ======
           smpTimeMenuExec         0002B684 
               CSTACK = 00000000 ( 00000004 )
    -------------------------------------------------------------------------
<CODE> 2 (was CODE)
  Relative segment, address: 00025A4A - 00025B6D (0x124 bytes), align: 1
  Segment part 531.           Intra module refs:   newWindow
           ENTRY                   ADDRESS         REF BY
           =====                   =======         ======
           smpTimeWarnMenuShow     00025A4A 
               calls direct
               CSTACK = 00000000 ( 00000006 )
    -------------------------------------------------------------------------
<CODE> 2 (was CODE)
  Relative segment, address: 0002AF64 - 0002AF93 (0x30 bytes), align: 1
  Segment part 530.           Intra module refs:   newWindow
           ENTRY                   ADDRESS         REF BY
           =====                   =======         ======
           smpTimeWarnMenuOnOk     0002AF64 
               calls indirect
               CSTACK = 00000000 ( 00000006 )
    -------------------------------------------------------------------------
<CODE> 2 (was CODE)
  Relative segment, address: 0001E456 - 0001E6DD (0x288 bytes), align: 1
  Segment part 529.           Intra module refs:   newWindow
           ENTRY                   ADDRESS         REF BY
           =====                   =======         ======
           timeViewMenuShow        0001E456 
               calls direct
               CSTACK = 00000000 ( 00000006 )
    -------------------------------------------------------------------------
<CODE> 2 (was CODE)
  Relative segment, address: 0001D210 - 0001D4C5 (0x2b6 bytes), align: 1
  Segment part 528.           Intra module refs:   newWindow
           ENTRY                   ADDRESS         REF BY
           =====                   =======         ======
           timeViewMenuOnUp        0001D210 
               calls direct
               CSTACK = 00000000 ( 00000006 )
    -------------------------------------------------------------------------
<CODE> 2 (was CODE)
  Relative segment, address: 0001CF5A - 0001D20F (0x2b6 bytes), align: 1
  Segment part 527.           Intra module refs:   newWindow
           ENTRY                   ADDRESS         REF BY
           =====                   =======         ======
           timeViewMenuOnDown      0001CF5A 
               calls direct
               CSTACK = 00000000 ( 00000006 )
    -------------------------------------------------------------------------
<CODE> 2 (was CODE)
  Relative segment, address: 00027332 - 00027413 (0xe2 bytes), align: 1
  Segment part 524.           Intra module refs:   newWindow
           ENTRY                   ADDRESS         REF BY
           =====                   =======         ======
           timeViewMenuOnOk        00027332 
               calls indirect
               CSTACK = 00000000 ( 00000006 )
    -------------------------------------------------------------------------
<CODE> 2 (was CODE)
  Relative segment, address: 0002961C - 00029693 (0x78 bytes), align: 1
  Segment part 523.           Intra module refs:   newWindow
           ENTRY                   ADDRESS         REF BY
           =====                   =======         ======
           timeViewMenuOnEsc       0002961C 
               calls indirect
               CSTACK = 00000000 ( 00000006 )
    -------------------------------------------------------------------------
<CODE> 2 (was CODE)
  Relative segment, address: 0002B680 - 0002B681 (0x2 bytes), align: 1
  Segment part 522.           Intra module refs:   newWindow
           ENTRY                   ADDRESS         REF BY
           =====                   =======         ======
           timeViewMenuExec        0002B680 
               CSTACK = 00000000 ( 00000004 )
    -------------------------------------------------------------------------
<CODE> 2 (was CODE)
  Relative segment, address: 000172A4 - 0001761F (0x37c bytes), align: 1
  Segment part 521.           Intra module refs:   newWindow
           ENTRY                   ADDRESS         REF BY
           =====                   =======         ======
           timeViewSetMenuShow     000172A4 
               calls direct
               CSTACK = 00000000 ( 00000010 )
    -------------------------------------------------------------------------
<CODE> 2 (was CODE)
  Relative segment, address: 0002055E - 0002078B (0x22e bytes), align: 1
  Segment part 520.           Intra module refs:   newWindow
           ENTRY                   ADDRESS         REF BY
           =====                   =======         ======
           timeViewSetMenuOnLeft   0002055E 
               calls direct
               CSTACK = 00000000 ( 0000000A )
    -------------------------------------------------------------------------
<CODE> 2 (was CODE)
  Relative segment, address: 0002078C - 000209B9 (0x22e bytes), align: 1
  Segment part 519.           Intra module refs:   newWindow
           ENTRY                   ADDRESS         REF BY
           =====                   =======         ======
           timeViewSetMenuOnRight
                                   0002078C 
               calls direct
               CSTACK = 00000000 ( 0000000A )
    -------------------------------------------------------------------------
<CODE> 2 (was CODE)
  Relative segment, address: 00029F62 - 00029FBF (0x5e bytes), align: 1
  Segment part 518.           Intra module refs:   newWindow
           ENTRY                   ADDRESS         REF BY
           =====                   =======         ======
           timeViewSetMenuOnOk     00029F62 
               calls direct and indirect
               CSTACK = 00000000 ( 00000006 )
    -------------------------------------------------------------------------
<CODE> 2 (was CODE)
  Relative segment, address: 0002ADB4 - 0002ADE3 (0x30 bytes), align: 1
  Segment part 517.           Intra module refs:   newWindow
           ENTRY                   ADDRESS         REF BY
           =====                   =======         ======
           timeViewSetMenuOnEsc    0002ADB4 
               calls indirect
               CSTACK = 00000000 ( 00000006 )
    -------------------------------------------------------------------------
<CODE> 2 (was CODE)
  Relative segment, address: 0002B68E - 0002B68F (0x2 bytes), align: 1
  Segment part 516.           Intra module refs:   newWindow
           ENTRY                   ADDRESS         REF BY
           =====                   =======         ======
           timeViewSetMenuExec     0002B68E 
               CSTACK = 00000000 ( 00000004 )
    -------------------------------------------------------------------------
<CODE> 2 (was CODE)
  Relative segment, address: 000138CA - 00013DC9 (0x500 bytes), align: 1
  Segment part 515.           Intra module refs:   newWindow
           ENTRY                   ADDRESS         REF BY
           =====                   =======         ======
           timeViewStatusMenuShow
                                   000138CA 
               calls direct
               CSTACK = 00000000 ( 0000000E )
    -------------------------------------------------------------------------
<CODE> 2 (was CODE)
  Relative segment, address: 0001510A - 000155B5 (0x4ac bytes), align: 1
  Segment part 514.           Intra module refs:   newWindow
           ENTRY                   ADDRESS         REF BY
           =====                   =======         ======
           timeViewStatusMenuOnUp
                                   0001510A 
               calls direct
               CSTACK = 00000000 ( 0000000E )
    -------------------------------------------------------------------------
<CODE> 2 (was CODE)
  Relative segment, address: 00014C5E - 00015109 (0x4ac bytes), align: 1
  Segment part 513.           Intra module refs:   newWindow
           ENTRY                   ADDRESS         REF BY
           =====                   =======         ======
           timeViewStatusMenuOnDown
                                   00014C5E 
               calls direct
               CSTACK = 00000000 ( 0000000E )
    -------------------------------------------------------------------------
<CODE> 2 (was CODE)
  Relative segment, address: 00029F04 - 00029F61 (0x5e bytes), align: 1
  Segment part 512.           Intra module refs:   newWindow
           ENTRY                   ADDRESS         REF BY
           =====                   =======         ======
           timeViewStatusMenuOnOk
                                   00029F04 
               calls direct and indirect
               CSTACK = 00000000 ( 00000006 )
    -------------------------------------------------------------------------
<CODE> 2 (was CODE)
  Relative segment, address: 0002AE74 - 0002AEA3 (0x30 bytes), align: 1
  Segment part 511.           Intra module refs:   newWindow
           ENTRY                   ADDRESS         REF BY
           =====                   =======         ======
           timeViewStatusMenuOnEsc
                                   0002AE74 
               calls indirect
               CSTACK = 00000000 ( 00000006 )
    -------------------------------------------------------------------------
<CODE> 2 (was CODE)
  Relative segment, address: 00023508 - 00023695 (0x18e bytes), align: 1
  Segment part 510.           Intra module refs:   newWindow
           ENTRY                   ADDRESS         REF BY
           =====                   =======         ======
           timeViewStatusMenuExec
                                   00023508 
               calls direct
               CSTACK = 00000000 ( 0000000E )
    -------------------------------------------------------------------------
DATA16_Z
  Relative segment, address: 1D9E - 1DA1 (0x4 bytes), align: 1
  Segment part 294.           Intra module refs:   timeViewStatusMenuExec
           LOCAL                   ADDRESS         
           =====                   =======         
           timeViewStatusMenuExec::old_dynamic_flow
                                   1D9E 
    -------------------------------------------------------------------------
DATA16_Z
  Relative segment, address: 1DA2 - 1DA5 (0x4 bytes), align: 1
  Segment part 295.           Intra module refs:   timeViewStatusMenuExec
           LOCAL                   ADDRESS         
           =====                   =======         
           timeViewStatusMenuExec::old_percent
                                   1DA2 
    -------------------------------------------------------------------------
<CODE> 2 (was CODE)
  Relative segment, address: 0001DF46 - 0001E1CD (0x288 bytes), align: 1
  Segment part 509.           Intra module refs:   newWindow
           ENTRY                   ADDRESS         REF BY
           =====                   =======         ======
           cylViewMenuShow         0001DF46 
               calls direct
               CSTACK = 00000000 ( 00000006 )
    -------------------------------------------------------------------------
<CODE> 2 (was CODE)
  Relative segment, address: 0001CCA4 - 0001CF59 (0x2b6 bytes), align: 1
  Segment part 508.           Intra module refs:   newWindow
           ENTRY                   ADDRESS         REF BY
           =====                   =======         ======
           cylViewMenuOnUp         0001CCA4 
               calls direct
               CSTACK = 00000000 ( 00000006 )
    -------------------------------------------------------------------------
<CODE> 2 (was CODE)
  Relative segment, address: 0001C9EE - 0001CCA3 (0x2b6 bytes), align: 1
  Segment part 507.           Intra module refs:   newWindow
           ENTRY                   ADDRESS         REF BY
           =====                   =======         ======
           cylViewMenuOnDown       0001C9EE 
               calls direct
               CSTACK = 00000000 ( 00000006 )
    -------------------------------------------------------------------------
<CODE> 2 (was CODE)
  Relative segment, address: 000275D4 - 000276AF (0xdc bytes), align: 1
  Segment part 504.           Intra module refs:   newWindow
           ENTRY                   ADDRESS         REF BY
           =====                   =======         ======
           cylViewMenuOnOk         000275D4 
               calls indirect
               CSTACK = 00000000 ( 00000006 )
    -------------------------------------------------------------------------
<CODE> 2 (was CODE)
  Relative segment, address: 000298E0 - 00029951 (0x72 bytes), align: 1
  Segment part 503.           Intra module refs:   newWindow
           ENTRY                   ADDRESS         REF BY
           =====                   =======         ======
           cylViewMenuOnEsc        000298E0 
               calls indirect
               CSTACK = 00000000 ( 00000006 )
    -------------------------------------------------------------------------
<CODE> 2 (was CODE)
  Relative segment, address: 0002B6A6 - 0002B6A7 (0x2 bytes), align: 1
  Segment part 502.           Intra module refs:   newWindow
           ENTRY                   ADDRESS         REF BY
           =====                   =======         ======
           cylViewMenuExec         0002B6A6 
               CSTACK = 00000000 ( 00000004 )
    -------------------------------------------------------------------------
<CODE> 2 (was CODE)
  Relative segment, address: 000190FA - 00019431 (0x338 bytes), align: 1
  Segment part 501.           Intra module refs:   newWindow
           ENTRY                   ADDRESS         REF BY
           =====                   =======         ======
           cylViewSetMenuShow      000190FA 
               calls direct
               CSTACK = 00000000 ( 00000008 )
    -------------------------------------------------------------------------
<CODE> 2 (was CODE)
  Relative segment, address: 0002B698 - 0002B699 (0x2 bytes), align: 1
  Segment part 498.           Intra module refs:   newWindow
           ENTRY                   ADDRESS         REF BY
           =====                   =======         ======
           cylViewSetMenuOnLeft    0002B698 
               CSTACK = 00000000 ( 00000004 )
    -------------------------------------------------------------------------
<CODE> 2 (was CODE)
  Relative segment, address: 0002B694 - 0002B695 (0x2 bytes), align: 1
  Segment part 497.           Intra module refs:   newWindow
           ENTRY                   ADDRESS         REF BY
           =====                   =======         ======
           cylViewSetMenuOnRight   0002B694 
               CSTACK = 00000000 ( 00000004 )
    -------------------------------------------------------------------------
<CODE> 2 (was CODE)
  Relative segment, address: 0002AE14 - 0002AE43 (0x30 bytes), align: 1
  Segment part 496.           Intra module refs:   newWindow
           ENTRY                   ADDRESS         REF BY
           =====                   =======         ======
           cylViewSetMenuOnOk      0002AE14 
               calls indirect
               CSTACK = 00000000 ( 00000006 )
    -------------------------------------------------------------------------
<CODE> 2 (was CODE)
  Relative segment, address: 0002ACF4 - 0002AD23 (0x30 bytes), align: 1
  Segment part 495.           Intra module refs:   newWindow
           ENTRY                   ADDRESS         REF BY
           =====                   =======         ======
           cylViewSetMenuOnEsc     0002ACF4 
               calls indirect
               CSTACK = 00000000 ( 00000006 )
    -------------------------------------------------------------------------
<CODE> 2 (was CODE)
  Relative segment, address: 0002B67E - 0002B67F (0x2 bytes), align: 1
  Segment part 494.           Intra module refs:   newWindow
           ENTRY                   ADDRESS         REF BY
           =====                   =======         ======
           cylViewSetMenuExec      0002B67E 
               CSTACK = 00000000 ( 00000004 )
    -------------------------------------------------------------------------
<CODE> 1 (was CODE)
  Relative segment, address: E9A6 - F0E9 (0x744 bytes), align: 1
  Segment part 493.           Intra module refs:   newWindow
           ENTRY                   ADDRESS         REF BY
           =====                   =======         ======
           cylViewStatusMenuShow   E9A6 
               calls direct
               CSTACK = 00000000 ( 0000000C )
    -------------------------------------------------------------------------
<CODE> 2 (was CODE)
  Relative segment, address: 0002B67C - 0002B67D (0x2 bytes), align: 1
  Segment part 492.           Intra module refs:   newWindow
           ENTRY                   ADDRESS         REF BY
           =====                   =======         ======
           cylViewStatusMenuOnUp   0002B67C 
               CSTACK = 00000000 ( 00000004 )
    -------------------------------------------------------------------------
<CODE> 2 (was CODE)
  Relative segment, address: 0002B678 - 0002B679 (0x2 bytes), align: 1
  Segment part 491.           Intra module refs:   newWindow
           ENTRY                   ADDRESS         REF BY
           =====                   =======         ======
           cylViewStatusMenuOnDown
                                   0002B678 
               CSTACK = 00000000 ( 00000004 )
    -------------------------------------------------------------------------
<CODE> 2 (was CODE)
  Relative segment, address: 0002ACC4 - 0002ACF3 (0x30 bytes), align: 1
  Segment part 488.           Intra module refs:   newWindow
           ENTRY                   ADDRESS         REF BY
           =====                   =======         ======
           cylViewStatusMenuOnOk   0002ACC4 
               calls indirect
               CSTACK = 00000000 ( 00000006 )
    -------------------------------------------------------------------------
<CODE> 2 (was CODE)
  Relative segment, address: 0002ADE4 - 0002AE13 (0x30 bytes), align: 1
  Segment part 487.           Intra module refs:   newWindow
           ENTRY                   ADDRESS         REF BY
           =====                   =======         ======
           cylViewStatusMenuOnEsc
                                   0002ADE4 
               calls indirect
               CSTACK = 00000000 ( 00000006 )
    -------------------------------------------------------------------------
<CODE> 2 (was CODE)
  Relative segment, address: 000123B2 - 0001290D (0x55c bytes), align: 1
  Segment part 486.           Intra module refs:   newWindow
           ENTRY                   ADDRESS         REF BY
           =====                   =======         ======
           cylViewStatusMenuExec   000123B2 
               calls direct
               CSTACK = 00000000 ( 0000000C )
    -------------------------------------------------------------------------
DATA16_Z
  Relative segment, address: 1DA6 - 1DA9 (0x4 bytes), align: 1
  Segment part 296.           Intra module refs:   cylViewStatusMenuExec
           LOCAL                   ADDRESS         
           =====                   =======         
           cylViewStatusMenuExec::old_dynamic_flow
                                   1DA6 
    -------------------------------------------------------------------------
DATA16_Z
  Relative segment, address: 1DAA - 1DAD (0x4 bytes), align: 1
  Segment part 297.           Intra module refs:   cylViewStatusMenuExec
           LOCAL                   ADDRESS         
           =====                   =======         
           cylViewStatusMenuExec::old_percent
                                   1DAA 
    -------------------------------------------------------------------------
DATA16_Z
  Relative segment, address: 1DAE - 1DAF (0x2 bytes), align: 1
  Segment part 298.           Intra module refs:   cylViewStatusMenuExec
           LOCAL                   ADDRESS         
           =====                   =======         
           cylViewStatusMenuExec::old_used_time
                                   1DAE 
    -------------------------------------------------------------------------
DATA16_Z
  Relative segment, address: 1DB0 - 1DB1 (0x2 bytes), align: 1
  Segment part 299.           Intra module refs:   cylViewStatusMenuExec
           LOCAL                   ADDRESS         
           =====                   =======         
           cylViewStatusMenuExec::old_status
                                   1DB0 
    -------------------------------------------------------------------------
<CODE> 2 (was CODE)
  Relative segment, address: 0001EBEA - 0001EE63 (0x27a bytes), align: 1
  Segment part 485.           Intra module refs:   newWindow
           ENTRY                   ADDRESS         REF BY
           =====                   =======         ======
           allSetMenuShow          0001EBEA 
               calls direct
               CSTACK = 00000000 ( 00000014 )
    -------------------------------------------------------------------------
<CODE> 2 (was CODE)
  Relative segment, address: 00024F10 - 00025061 (0x152 bytes), align: 1
  Segment part 482.           Intra module refs:   newWindow
           ENTRY                   ADDRESS         REF BY
           =====                   =======         ======
           allSetMenuOnLeft        00024F10 
               calls direct
               CSTACK = 00000000 ( 00000010 )
    -------------------------------------------------------------------------
<CODE> 2 (was CODE)
  Relative segment, address: 00025062 - 000251B3 (0x152 bytes), align: 1
  Segment part 481.           Intra module refs:   newWindow
           ENTRY                   ADDRESS         REF BY
           =====                   =======         ======
           allSetMenuOnRight       00025062 
               calls direct
               CSTACK = 00000000 ( 00000010 )
    -------------------------------------------------------------------------
<CODE> 2 (was CODE)
  Relative segment, address: 000222D4 - 0002249D (0x1ca bytes), align: 1
  Segment part 480.           Intra module refs:   newWindow
           ENTRY                   ADDRESS         REF BY
           =====                   =======         ======
           allSetMenuOnOk          000222D4 
               calls indirect
               CSTACK = 00000000 ( 00000006 )
    -------------------------------------------------------------------------
<CODE> 2 (was CODE)
  Relative segment, address: 00029332 - 000293B1 (0x80 bytes), align: 1
  Segment part 479.           Intra module refs:   newWindow
           ENTRY                   ADDRESS         REF BY
           =====                   =======         ======
           allSetMenuOnEsc         00029332 
               calls indirect
               CSTACK = 00000000 ( 00000006 )
    -------------------------------------------------------------------------
<CODE> 2 (was CODE)
  Relative segment, address: 0002B656 - 0002B65B (0x6 bytes), align: 1
  Segment part 478.           Intra module refs:   newWindow
           ENTRY                   ADDRESS         REF BY
           =====                   =======         ======
           allSetMenuExec          0002B656 
               calls direct
               CSTACK = 00000000 ( 00000004 )
    -------------------------------------------------------------------------
<CODE> 2 (was CODE)
  Relative segment, address: 00016B28 - 00016EF9 (0x3d2 bytes), align: 1
  Segment part 476.           Intra module refs:   newWindow
           ENTRY                   ADDRESS         REF BY
           =====                   =======         ======
           modSetMenuShow          00016B28 
               calls direct
               CSTACK = 00000000 ( 00000012 )
    -------------------------------------------------------------------------
<CODE> 2 (was CODE)
  Relative segment, address: 0001FC84 - 0001FEC1 (0x23e bytes), align: 1
  Segment part 475.           Intra module refs:   newWindow
           ENTRY                   ADDRESS         REF BY
           =====                   =======         ======
           modSetMenuOnUp          0001FC84 
               calls direct
               CSTACK = 00000000 ( 0000000A )
    -------------------------------------------------------------------------
<CODE> 2 (was CODE)
  Relative segment, address: 0001FA46 - 0001FC83 (0x23e bytes), align: 1
  Segment part 474.           Intra module refs:   newWindow
           ENTRY                   ADDRESS         REF BY
           =====                   =======         ======
           modSetMenuOnDown        0001FA46 
               calls direct
               CSTACK = 00000000 ( 0000000A )
    -------------------------------------------------------------------------
<CODE> 2 (was CODE)
  Relative segment, address: 00020FF0 - 000211E1 (0x1f2 bytes), align: 1
  Segment part 473.           Intra module refs:   newWindow
           ENTRY                   ADDRESS         REF BY
           =====                   =======         ======
           modSetMenuOnLeft        00020FF0 
               calls direct
               CSTACK = 00000000 ( 0000000A )
    -------------------------------------------------------------------------
<CODE> 2 (was CODE)
  Relative segment, address: 000211E2 - 000213D3 (0x1f2 bytes), align: 1
  Segment part 472.           Intra module refs:   newWindow
           ENTRY                   ADDRESS         REF BY
           =====                   =======         ======
           modSetMenuOnRight       000211E2 
               calls direct
               CSTACK = 00000000 ( 0000000A )
    -------------------------------------------------------------------------
<CODE> 2 (was CODE)
  Relative segment, address: 00028802 - 0002889F (0x9e bytes), align: 1
  Segment part 471.           Intra module refs:   newWindow
           ENTRY                   ADDRESS         REF BY
           =====                   =======         ======
           modSetMenuOnOk          00028802 
               calls direct and indirect
               CSTACK = 00000000 ( 00000006 )
    -------------------------------------------------------------------------
<CODE> 2 (was CODE)
  Relative segment, address: 0002AE44 - 0002AE73 (0x30 bytes), align: 1
  Segment part 470.           Intra module refs:   newWindow
           ENTRY                   ADDRESS         REF BY
           =====                   =======         ======
           modSetMenuOnEsc         0002AE44 
               calls indirect
               CSTACK = 00000000 ( 00000006 )
    -------------------------------------------------------------------------
<CODE> 2 (was CODE)
  Relative segment, address: 00026970 - 00026A79 (0x10a bytes), align: 1
  Segment part 469.           Intra module refs:   newWindow
           ENTRY                   ADDRESS         REF BY
           =====                   =======         ======
           modSetMenuExec          00026970 
               calls direct
               CSTACK = 00000000 ( 00000004 )
    -------------------------------------------------------------------------
DATA16_Z
  Relative segment, address: 1DB2 - 1DB3 (0x2 bytes), align: 1
  Segment part 300.           Intra module refs:   modSetMenuExec
           LOCAL                   ADDRESS         
           =====                   =======         
           modSetMenuExec::old_sec
                                   1DB2 
    -------------------------------------------------------------------------
<CODE> 2 (was CODE)
  Relative segment, address: 000288A0 - 0002893B (0x9c bytes), align: 1
  Segment part 468.           Intra module refs:   newWindow
           ENTRY                   ADDRESS         REF BY
           =====                   =======         ======
           parameterSetMenuShow    000288A0 
               calls indirect
               CSTACK = 00000000 ( 00000006 )
    -------------------------------------------------------------------------
<CODE> 2 (was CODE)
  Relative segment, address: 0002B24C - 0002B269 (0x1e bytes), align: 1
  Segment part 467.           Intra module refs:   newWindow
           ENTRY                   ADDRESS         REF BY
           =====                   =======         ======
           manuFlowSetMenuShow     0002B24C 
               calls direct
               CSTACK = 00000000 ( 00000006 )
    -------------------------------------------------------------------------
<CODE> 2 (was CODE)
  Relative segment, address: 0002B4DA - 0002B4ED (0x14 bytes), align: 1
  Segment part 466.           Intra module refs:   newWindow
           ENTRY                   ADDRESS         REF BY
           =====                   =======         ======
           manuFlowSetMenuOnUp     0002B4DA 
               calls direct
               CSTACK = 00000000 ( 00000006 )
    -------------------------------------------------------------------------
<CODE> 2 (was CODE)
  Relative segment, address: 0002B462 - 0002B475 (0x14 bytes), align: 1
  Segment part 465.           Intra module refs:   newWindow
           ENTRY                   ADDRESS         REF BY
           =====                   =======         ======
           manuFlowSetMenuOnDown   0002B462 
               calls direct
               CSTACK = 00000000 ( 00000006 )
    -------------------------------------------------------------------------
<CODE> 2 (was CODE)
  Relative segment, address: 0002B476 - 0002B489 (0x14 bytes), align: 1
  Segment part 464.           Intra module refs:   newWindow
           ENTRY                   ADDRESS         REF BY
           =====                   =======         ======
           manuFlowSetMenuOnLeft   0002B476 
               calls direct
               CSTACK = 00000000 ( 00000006 )
    -------------------------------------------------------------------------
<CODE> 2 (was CODE)
  Relative segment, address: 0002B3EA - 0002B3FD (0x14 bytes), align: 1
  Segment part 463.           Intra module refs:   newWindow
           ENTRY                   ADDRESS         REF BY
           =====                   =======         ======
           manuFlowSetMenuOnRight
                                   0002B3EA 
               calls direct
               CSTACK = 00000000 ( 00000006 )
    -------------------------------------------------------------------------
<CODE> 2 (was CODE)
  Relative segment, address: 0002724A - 00027331 (0xe8 bytes), align: 1
  Segment part 462.           Intra module refs:   newWindow
           ENTRY                   ADDRESS         REF BY
           =====                   =======         ======
           manuFlowSetMenuOnOk     0002724A 
               calls direct and indirect
               CSTACK = 00000000 ( 00000008 )
    -------------------------------------------------------------------------
<CODE> 2 (was CODE)
  Relative segment, address: 0002A3B8 - 0002A403 (0x4c bytes), align: 1
  Segment part 461.           Intra module refs:   newWindow
           ENTRY                   ADDRESS         REF BY
           =====                   =======         ======
           manuFlowSetMenuOnEsc    0002A3B8 
               calls indirect
               CSTACK = 00000000 ( 00000008 )
    -------------------------------------------------------------------------
<CODE> 2 (was CODE)
  Relative segment, address: 0002B6A8 - 0002B6A9 (0x2 bytes), align: 1
  Segment part 460.           Intra module refs:   newWindow
           ENTRY                   ADDRESS         REF BY
           =====                   =======         ======
           manuFlowSetMenuExec     0002B6A8 
               CSTACK = 00000000 ( 00000004 )
    -------------------------------------------------------------------------
<CODE> 2 (was CODE)
  Relative segment, address: 0001B5BE - 0001B8A5 (0x2e8 bytes), align: 1
  Segment part 459.           Intra module refs:   newWindow
           ENTRY                   ADDRESS         REF BY
           =====                   =======         ======
           groupSetMenuShow        0001B5BE 
               calls direct
               CSTACK = 00000000 ( 00000012 )
    -------------------------------------------------------------------------
<CODE> 2 (was CODE)
  Relative segment, address: 000215BE - 000217A7 (0x1ea bytes), align: 1
  Segment part 458.           Intra module refs:   newWindow
           ENTRY                   ADDRESS         REF BY
           =====                   =======         ======
           groupSetMenuOnUp        000215BE 
               calls direct
               CSTACK = 00000000 ( 00000008 )
    -------------------------------------------------------------------------
<CODE> 2 (was CODE)
  Relative segment, address: 000213D4 - 000215BD (0x1ea bytes), align: 1
  Segment part 457.           Intra module refs:   newWindow
           ENTRY                   ADDRESS         REF BY
           =====                   =======         ======
           groupSetMenuOnDown      000213D4 
               calls direct
               CSTACK = 00000000 ( 00000008 )
    -------------------------------------------------------------------------
<CODE> 2 (was CODE)
  Relative segment, address: 00023B26 - 00023CA7 (0x182 bytes), align: 1
  Segment part 456.           Intra module refs:   newWindow
           ENTRY                   ADDRESS         REF BY
           =====                   =======         ======
           groupSetMenuOnLeft      00023B26 
               calls direct
               CSTACK = 00000000 ( 0000000A )
    -------------------------------------------------------------------------
<CODE> 2 (was CODE)
  Relative segment, address: 000239A4 - 00023B25 (0x182 bytes), align: 1
  Segment part 455.           Intra module refs:   newWindow
           ENTRY                   ADDRESS         REF BY
           =====                   =======         ======
           groupSetMenuOnRight     000239A4 
               calls direct
               CSTACK = 00000000 ( 0000000A )
    -------------------------------------------------------------------------
<CODE> 2 (was CODE)
  Relative segment, address: 00028B98 - 00028C2B (0x94 bytes), align: 1
  Segment part 454.           Intra module refs:   newWindow
           ENTRY                   ADDRESS         REF BY
           =====                   =======         ======
           groupSetMenuOnOk        00028B98 
               calls indirect
               CSTACK = 00000000 ( 00000008 )
    -------------------------------------------------------------------------
<CODE> 2 (was CODE)
  Relative segment, address: 0002A602 - 0002A647 (0x46 bytes), align: 1
  Segment part 453.           Intra module refs:   newWindow
           ENTRY                   ADDRESS         REF BY
           =====                   =======         ======
           groupSetMenuOnEsc       0002A602 
               calls indirect
               CSTACK = 00000000 ( 00000008 )
    -------------------------------------------------------------------------
<CODE> 2 (was CODE)
  Relative segment, address: 0002B6A4 - 0002B6A5 (0x2 bytes), align: 1
  Segment part 452.           Intra module refs:   newWindow
           ENTRY                   ADDRESS         REF BY
           =====                   =======         ======
           groupSetMenuExec        0002B6A4 
               CSTACK = 00000000 ( 00000004 )
    -------------------------------------------------------------------------
<CODE> 2 (was CODE)
  Relative segment, address: 00011894 - 00011E55 (0x5c2 bytes), align: 1
  Segment part 451.           Intra module refs:   newWindow
           ENTRY                   ADDRESS         REF BY
           =====                   =======         ======
           groupParaSetMenuShow    00011894 
               calls direct
               CSTACK = 00000000 ( 00000012 )
    -------------------------------------------------------------------------
<CODE> 2 (was CODE)
  Relative segment, address: 000133A0 - 000138C9 (0x52a bytes), align: 1
  Segment part 450.           Intra module refs:   newWindow
           ENTRY                   ADDRESS         REF BY
           =====                   =======         ======
           groupParaSetMenuOnUp    000133A0 
               calls direct
               CSTACK = 00000000 ( 00000006 )
    -------------------------------------------------------------------------
<CODE> 2 (was CODE)
  Relative segment, address: 00012E6A - 0001339F (0x536 bytes), align: 1
  Segment part 449.           Intra module refs:   newWindow
           ENTRY                   ADDRESS         REF BY
           =====                   =======         ======
           groupParaSetMenuOnDown
                                   00012E6A 
               calls direct
               CSTACK = 00000000 ( 00000006 )
    -------------------------------------------------------------------------
<CODE> 2 (was CODE)
  Relative segment, address: 0001A0FE - 0001A3FD (0x300 bytes), align: 1
  Segment part 446.           Intra module refs:   newWindow
           ENTRY                   ADDRESS         REF BY
           =====                   =======         ======
           groupParaSetMenuOnOk    0001A0FE 
               calls direct and indirect
               CSTACK = 00000000 ( 00000018 )
    -------------------------------------------------------------------------
<CODE> 2 (was CODE)
  Relative segment, address: 0002AD84 - 0002ADB3 (0x30 bytes), align: 1
  Segment part 445.           Intra module refs:   newWindow
           ENTRY                   ADDRESS         REF BY
           =====                   =======         ======
           groupParaSetMenuOnEsc   0002AD84 
               calls indirect
               CSTACK = 00000000 ( 00000006 )
    -------------------------------------------------------------------------
<CODE> 2 (was CODE)
  Relative segment, address: 0002B696 - 0002B697 (0x2 bytes), align: 1
  Segment part 444.           Intra module refs:   newWindow
           ENTRY                   ADDRESS         REF BY
           =====                   =======         ======
           groupParaSetMenuExec    0002B696 
               CSTACK = 00000000 ( 00000004 )
    -------------------------------------------------------------------------
<CODE> 1 (was CODE)
  Relative segment, address: C38E - D169 (0xddc bytes), align: 1
  Segment part 443.           Intra module refs:   newWindow
           ENTRY                   ADDRESS         REF BY
           =====                   =======         ======
           groupWorkTimeSetMenuShow
                                   C38E 
               calls direct
               CSTACK = 00000000 ( 00000012 )
    -------------------------------------------------------------------------
<CODE> 2 (was CODE)
  Relative segment, address: 0001D770 - 0001DA0F (0x2a0 bytes), align: 1
  Segment part 442.           Intra module refs:   newWindow
           ENTRY                   ADDRESS         REF BY
           =====                   =======         ======
           groupWorkTimeSetMenuOnUp
                                   0001D770 
               calls direct
               CSTACK = 00000000 ( 0000000E )
    -------------------------------------------------------------------------
<CODE> 2 (was CODE)
  Relative segment, address: 0001DA10 - 0001DCAF (0x2a0 bytes), align: 1
  Segment part 441.           Intra module refs:   newWindow
           ENTRY                   ADDRESS         REF BY
           =====                   =======         ======
           groupWorkTimeSetMenuOnDown
                                   0001DA10 
               calls direct
               CSTACK = 00000000 ( 0000000E )
    -------------------------------------------------------------------------
<CODE> 2 (was CODE)
  Relative segment, address: 0001C154 - 0001C437 (0x2e4 bytes), align: 1
  Segment part 440.           Intra module refs:   newWindow
           ENTRY                   ADDRESS         REF BY
           =====                   =======         ======
           groupWorkTimeSetMenuOnLeft
                                   0001C154 
               calls direct
               CSTACK = 00000000 ( 00000010 )
    -------------------------------------------------------------------------
<CODE> 2 (was CODE)
  Relative segment, address: 0001C438 - 0001C719 (0x2e2 bytes), align: 1
  Segment part 439.           Intra module refs:   newWindow
           ENTRY                   ADDRESS         REF BY
           =====                   =======         ======
           groupWorkTimeSetMenuOnRight
                                   0001C438 
               calls direct
               CSTACK = 00000000 ( 00000010 )
    -------------------------------------------------------------------------
<CODE> 2 (was CODE)
  Relative segment, address: 0001E964 - 0001EBE9 (0x286 bytes), align: 1
  Segment part 438.           Intra module refs:   newWindow
           ENTRY                   ADDRESS         REF BY
           =====                   =======         ======
           groupWorkTimeSetMenuOnOk
                                   0001E964 
               calls indirect
               CSTACK = 00000000 ( 00000014 )
    -------------------------------------------------------------------------
<CODE> 2 (was CODE)
  Relative segment, address: 0002A986 - 0002A9C1 (0x3c bytes), align: 1
  Segment part 437.           Intra module refs:   newWindow
           ENTRY                   ADDRESS         REF BY
           =====                   =======         ======
           groupWorkTimeSetMenuOnEsc
                                   0002A986 
               calls indirect
               CSTACK = 00000000 ( 00000006 )
    -------------------------------------------------------------------------
<CODE> 2 (was CODE)
  Relative segment, address: 0002B68C - 0002B68D (0x2 bytes), align: 1
  Segment part 436.           Intra module refs:   newWindow
           ENTRY                   ADDRESS         REF BY
           =====                   =======         ======
           groupWorkTimeSetMenuExec
                                   0002B68C 
               CSTACK = 00000000 ( 00000004 )
    -------------------------------------------------------------------------
<CODE> 2 (was CODE)
  Relative segment, address: 0001B8A6 - 0001BB8B (0x2e6 bytes), align: 1
  Segment part 435.           Intra module refs:   newWindow
           ENTRY                   ADDRESS         REF BY
           =====                   =======         ======
           groupWarnMenuShow       0001B8A6 
               calls direct
               CSTACK = 00000000 ( 00000010 )
    -------------------------------------------------------------------------
<CODE> 2 (was CODE)
  Relative segment, address: 0002AED4 - 0002AF03 (0x30 bytes), align: 1
  Segment part 434.           Intra module refs:   newWindow
           ENTRY                   ADDRESS         REF BY
           =====                   =======         ======
           groupWarnMenuOnOk       0002AED4 
               calls indirect
               CSTACK = 00000000 ( 00000006 )
    -------------------------------------------------------------------------
<CODE> 2 (was CODE)
  Relative segment, address: 0002A94A - 0002A985 (0x3c bytes), align: 1
  Segment part 433.           Intra module refs:   newWindow
           ENTRY                   ADDRESS         REF BY
           =====                   =======         ======
           groupFlowSetMenuShow    0002A94A 
               calls direct
               CSTACK = 00000000 ( 00000006 )
    -------------------------------------------------------------------------
<CODE> 2 (was CODE)
  Relative segment, address: 0002B43A - 0002B44D (0x14 bytes), align: 1
  Segment part 432.           Intra module refs:   newWindow
           ENTRY                   ADDRESS         REF BY
           =====                   =======         ======
           groupFlowSetMenuOnUp    0002B43A 
               calls direct
               CSTACK = 00000000 ( 00000006 )
    -------------------------------------------------------------------------
<CODE> 2 (was CODE)
  Relative segment, address: 0002B4B2 - 0002B4C5 (0x14 bytes), align: 1
  Segment part 431.           Intra module refs:   newWindow
           ENTRY                   ADDRESS         REF BY
           =====                   =======         ======
           groupFlowSetMenuOnDown
                                   0002B4B2 
               calls direct
               CSTACK = 00000000 ( 00000006 )
    -------------------------------------------------------------------------
<CODE> 2 (was CODE)
  Relative segment, address: 0002B49E - 0002B4B1 (0x14 bytes), align: 1
  Segment part 430.           Intra module refs:   newWindow
           ENTRY                   ADDRESS         REF BY
           =====                   =======         ======
           groupFlowSetMenuOnLeft
                                   0002B49E 
               calls direct
               CSTACK = 00000000 ( 00000006 )
    -------------------------------------------------------------------------
<CODE> 2 (was CODE)
  Relative segment, address: 0002B48A - 0002B49D (0x14 bytes), align: 1
  Segment part 429.           Intra module refs:   newWindow
           ENTRY                   ADDRESS         REF BY
           =====                   =======         ======
           groupFlowSetMenuOnRight
                                   0002B48A 
               calls direct
               CSTACK = 00000000 ( 00000006 )
    -------------------------------------------------------------------------
<CODE> 2 (was CODE)
  Relative segment, address: 00027786 - 00027859 (0xd4 bytes), align: 1
  Segment part 428.           Intra module refs:   newWindow
           ENTRY                   ADDRESS         REF BY
           =====                   =======         ======
           groupFlowSetMenuOnOk    00027786 
               calls direct and indirect
               CSTACK = 00000000 ( 00000006 )
    -------------------------------------------------------------------------
<CODE> 2 (was CODE)
  Relative segment, address: 0002AFC4 - 0002AFF3 (0x30 bytes), align: 1
  Segment part 427.           Intra module refs:   newWindow
           ENTRY                   ADDRESS         REF BY
           =====                   =======         ======
           groupFlowSetMenuOnEsc   0002AFC4 
               calls indirect
               CSTACK = 00000000 ( 00000006 )
    -------------------------------------------------------------------------
<CODE> 2 (was CODE)
  Relative segment, address: 0002B676 - 0002B677 (0x2 bytes), align: 1
  Segment part 426.           Intra module refs:   newWindow
           ENTRY                   ADDRESS         REF BY
           =====                   =======         ======
           groupFlowSetMenuExec    0002B676 
               CSTACK = 00000000 ( 00000004 )
    -------------------------------------------------------------------------
<CODE> 1 (was CODE)
  Relative segment, address: E1DC - E9A5 (0x7ca bytes), align: 1
  Segment part 425.           Intra module refs:   newWindow
           ENTRY                   ADDRESS         REF BY
           =====                   =======         ======
           cylParaSetMenuShow      E1DC 
               calls direct
               CSTACK = 00000000 ( 00000012 )
    -------------------------------------------------------------------------
<CODE> 2 (was CODE)
  Relative segment, address: 0001066E - 00010CD3 (0x666 bytes), align: 1
  Segment part 424.           Intra module refs:   newWindow
           ENTRY                   ADDRESS         REF BY
           =====                   =======         ======
           cylParaSetMenuOnUp      0001066E 
               calls direct
               CSTACK = 00000000 ( 00000010 )
    -------------------------------------------------------------------------
<CODE> 2 (was CODE)
  Relative segment, address: 00010000 - 0001066D (0x66e bytes), align: 1
  Segment part 423.           Intra module refs:   newWindow
           ENTRY                   ADDRESS         REF BY
           =====                   =======         ======
           cylParaSetMenuOnDown    00010000 
               calls direct
               CSTACK = 00000000 ( 00000010 )
    -------------------------------------------------------------------------
<CODE> 2 (was CODE)
  Relative segment, address: 00026100 - 0002620F (0x110 bytes), align: 1
  Segment part 420.           Intra module refs:   newWindow
           ENTRY                   ADDRESS         REF BY
           =====                   =======         ======
           cylParaSetMenuOnOk      00026100 
               calls indirect
               CSTACK = 00000000 ( 00000008 )
    -------------------------------------------------------------------------
<CODE> 2 (was CODE)
  Relative segment, address: 0002A5BC - 0002A601 (0x46 bytes), align: 1
  Segment part 419.           Intra module refs:   newWindow
           ENTRY                   ADDRESS         REF BY
           =====                   =======         ======
           cylParaSetMenuOnEsc     0002A5BC 
               calls indirect
               CSTACK = 00000000 ( 00000008 )
    -------------------------------------------------------------------------
<CODE> 2 (was CODE)
  Relative segment, address: 0002B69C - 0002B69D (0x2 bytes), align: 1
  Segment part 418.           Intra module refs:   newWindow
           ENTRY                   ADDRESS         REF BY
           =====                   =======         ======
           cylParaSetMenuExec      0002B69C 
               CSTACK = 00000000 ( 00000004 )
    -------------------------------------------------------------------------
<CODE> 2 (was CODE)
  Relative segment, address: 0002B2DA - 0002B2F3 (0x1a bytes), align: 1
  Segment part 417.           Intra module refs:   newWindow
           ENTRY                   ADDRESS         REF BY
           =====                   =======         ======
           cylFlowSetMenuShow      0002B2DA 
               calls direct
               CSTACK = 00000000 ( 00000006 )
    -------------------------------------------------------------------------
<CODE> 2 (was CODE)
  Relative segment, address: 0002B426 - 0002B439 (0x14 bytes), align: 1
  Segment part 416.           Intra module refs:   newWindow
           ENTRY                   ADDRESS         REF BY
           =====                   =======         ======
           cylFlowSetMenuOnUp      0002B426 
               calls direct
               CSTACK = 00000000 ( 00000006 )
    -------------------------------------------------------------------------
<CODE> 2 (was CODE)
  Relative segment, address: 0002B412 - 0002B425 (0x14 bytes), align: 1
  Segment part 415.           Intra module refs:   newWindow
           ENTRY                   ADDRESS         REF BY
           =====                   =======         ======
           cylFlowSetMenuOnDown    0002B412 
               calls direct
               CSTACK = 00000000 ( 00000006 )
    -------------------------------------------------------------------------
<CODE> 2 (was CODE)
  Relative segment, address: 0002B3D6 - 0002B3E9 (0x14 bytes), align: 1
  Segment part 414.           Intra module refs:   newWindow
           ENTRY                   ADDRESS         REF BY
           =====                   =======         ======
           cylFlowSetMenuOnLeft    0002B3D6 
               calls direct
               CSTACK = 00000000 ( 00000006 )
    -------------------------------------------------------------------------
<CODE> 2 (was CODE)
  Relative segment, address: 0002B44E - 0002B461 (0x14 bytes), align: 1
  Segment part 413.           Intra module refs:   newWindow
           ENTRY                   ADDRESS         REF BY
           =====                   =======         ======
           cylFlowSetMenuOnRight   0002B44E 
               calls direct
               CSTACK = 00000000 ( 00000006 )
    -------------------------------------------------------------------------
<CODE> 2 (was CODE)
  Relative segment, address: 00027F62 - 00028019 (0xb8 bytes), align: 1
  Segment part 412.           Intra module refs:   newWindow
           ENTRY                   ADDRESS         REF BY
           =====                   =======         ======
           cylFlowSetMenuOnOk      00027F62 
               calls direct and indirect
               CSTACK = 00000000 ( 00000006 )
    -------------------------------------------------------------------------
<CODE> 2 (was CODE)
  Relative segment, address: 0002AFF4 - 0002B023 (0x30 bytes), align: 1
  Segment part 411.           Intra module refs:   newWindow
           ENTRY                   ADDRESS         REF BY
           =====                   =======         ======
           cylFlowSetMenuOnEsc     0002AFF4 
               calls indirect
               CSTACK = 00000000 ( 00000006 )
    -------------------------------------------------------------------------
<CODE> 2 (was CODE)
  Relative segment, address: 0002B692 - 0002B693 (0x2 bytes), align: 1
  Segment part 410.           Intra module refs:   newWindow
           ENTRY                   ADDRESS         REF BY
           =====                   =======         ======
           cylFlowSetMenuExec      0002B692 
               CSTACK = 00000000 ( 00000004 )
    -------------------------------------------------------------------------
<CODE> 2 (was CODE)
  Relative segment, address: 000112C4 - 00011893 (0x5d0 bytes), align: 1
  Segment part 409.           Intra module refs:   newWindow
           ENTRY                   ADDRESS         REF BY
           =====                   =======         ======
           cylDelaySetMenuShow     000112C4 
               calls direct
               CSTACK = 00000000 ( 00000014 )
    -------------------------------------------------------------------------
<CODE> 2 (was CODE)
  Relative segment, address: 00026A7A - 00026B81 (0x108 bytes), align: 1
  Segment part 408.           Intra module refs:   newWindow
           ENTRY                   ADDRESS         REF BY
           =====                   =======         ======
           cylDelaySetMenuOnUp     00026A7A 
               calls direct
               CSTACK = 00000000 ( 0000000C )
    -------------------------------------------------------------------------
<CODE> 2 (was CODE)
  Relative segment, address: 00026B82 - 00026C89 (0x108 bytes), align: 1
  Segment part 407.           Intra module refs:   newWindow
           ENTRY                   ADDRESS         REF BY
           =====                   =======         ======
           cylDelaySetMenuOnDown   00026B82 
               calls direct
               CSTACK = 00000000 ( 0000000C )
    -------------------------------------------------------------------------
<CODE> 2 (was CODE)
  Relative segment, address: 0001F0DA - 0001F34B (0x272 bytes), align: 1
  Segment part 406.           Intra module refs:   newWindow
           ENTRY                   ADDRESS         REF BY
           =====                   =======         ======
           cylDelaySetMenuOnLeft   0001F0DA 
               calls direct
               CSTACK = 00000000 ( 00000010 )
    -------------------------------------------------------------------------
<CODE> 2 (was CODE)
  Relative segment, address: 0001F34C - 0001F5BD (0x272 bytes), align: 1
  Segment part 405.           Intra module refs:   newWindow
           ENTRY                   ADDRESS         REF BY
           =====                   =======         ======
           cylDelaySetMenuOnRight
                                   0001F34C 
               calls direct
               CSTACK = 00000000 ( 00000010 )
    -------------------------------------------------------------------------
<CODE> 2 (was CODE)
  Relative segment, address: 00029694 - 0002970B (0x78 bytes), align: 1
  Segment part 404.           Intra module refs:   newWindow
           ENTRY                   ADDRESS         REF BY
           =====                   =======         ======
           cylDelaySetMenuOnOk     00029694 
               calls indirect
               CSTACK = 00000000 ( 00000006 )
    -------------------------------------------------------------------------
<CODE> 2 (was CODE)
  Relative segment, address: 0002AAFE - 0002AB31 (0x34 bytes), align: 1
  Segment part 403.           Intra module refs:   newWindow
           ENTRY                   ADDRESS         REF BY
           =====                   =======         ======
           cylDelaySetMenuOnEsc    0002AAFE 
               calls indirect
               CSTACK = 00000000 ( 00000006 )
    -------------------------------------------------------------------------
<CODE> 2 (was CODE)
  Relative segment, address: 0002B6A0 - 0002B6A1 (0x2 bytes), align: 1
  Segment part 402.           Intra module refs:   newWindow
           ENTRY                   ADDRESS         REF BY
           =====                   =======         ======
           cylDelaySetMenuExec     0002B6A0 
               CSTACK = 00000000 ( 00000004 )
    -------------------------------------------------------------------------
<CODE> 1 (was CODE)
  Relative segment, address: 9D26 - B347 (0x1622 bytes), align: 1
  Segment part 401.           Intra module refs:   newWindow
           ENTRY                   ADDRESS         REF BY
           =====                   =======         ======
           cylSmpTimeSetMenuShow   9D26 
               calls direct
               CSTACK = 00000000 ( 0000001C )
    -------------------------------------------------------------------------
<CODE> 2 (was CODE)
  Relative segment, address: 000183C6 - 00018717 (0x352 bytes), align: 1
  Segment part 400.           Intra module refs:   newWindow
           ENTRY                   ADDRESS         REF BY
           =====                   =======         ======
           cylSmpTimeSetMenuOnUp   000183C6 
               calls direct
               CSTACK = 00000000 ( 00000014 )
    -------------------------------------------------------------------------
<CODE> 2 (was CODE)
  Relative segment, address: 00018718 - 00018A69 (0x352 bytes), align: 1
  Segment part 399.           Intra module refs:   newWindow
           ENTRY                   ADDRESS         REF BY
           =====                   =======         ======
           cylSmpTimeSetMenuOnDown
                                   00018718 
               calls direct
               CSTACK = 00000000 ( 00000014 )
    -------------------------------------------------------------------------
<CODE> 1 (was CODE)
  Relative segment, address: F0EA - F825 (0x73c bytes), align: 1
  Segment part 398.           Intra module refs:   newWindow
           ENTRY                   ADDRESS         REF BY
           =====                   =======         ======
           cylSmpTimeSetMenuOnLeft
                                   F0EA 
               calls direct
               CSTACK = 00000000 ( 00000018 )
    -------------------------------------------------------------------------
<CODE> 1 (was CODE)
  Relative segment, address: F826 - FF61 (0x73c bytes), align: 1
  Segment part 397.           Intra module refs:   newWindow
           ENTRY                   ADDRESS         REF BY
           =====                   =======         ======
           cylSmpTimeSetMenuOnRight
                                   F826 
               calls direct
               CSTACK = 00000000 ( 00000018 )
    -------------------------------------------------------------------------
<CODE> 2 (was CODE)
  Relative segment, address: 00017620 - 00017993 (0x374 bytes), align: 1
  Segment part 396.           Intra module refs:   newWindow
           ENTRY                   ADDRESS         REF BY
           =====                   =======         ======
           cylSmpTimeSetMenuOnOk   00017620 
               calls direct and indirect
               CSTACK = 00000000 ( 0000001C )
    -------------------------------------------------------------------------
<CODE> 2 (was CODE)
  Relative segment, address: 0002AACA - 0002AAFD (0x34 bytes), align: 1
  Segment part 395.           Intra module refs:   newWindow
           ENTRY                   ADDRESS         REF BY
           =====                   =======         ======
           cylSmpTimeSetMenuOnEsc
                                   0002AACA 
               calls indirect
               CSTACK = 00000000 ( 00000006 )
    -------------------------------------------------------------------------
<CODE> 2 (was CODE)
  Relative segment, address: 0002B6AC - 0002B6AD (0x2 bytes), align: 1
  Segment part 394.           Intra module refs:   newWindow
           ENTRY                   ADDRESS         REF BY
           =====                   =======         ======
           cylSmpTimeSetMenuExec   0002B6AC 
               CSTACK = 00000000 ( 00000004 )
    -------------------------------------------------------------------------
<CODE> 2 (was CODE)
  Relative segment, address: 0001806C - 000183C5 (0x35a bytes), align: 1
  Segment part 393.           Intra module refs:   newWindow
           ENTRY                   ADDRESS         REF BY
           =====                   =======         ======
           cylCyclesSetMenuShow    0001806C 
               calls direct
               CSTACK = 00000000 ( 00000014 )
    -------------------------------------------------------------------------
<CODE> 2 (was CODE)
  Relative segment, address: 00029952 - 000299C1 (0x70 bytes), align: 1
  Segment part 392.           Intra module refs:   newWindow
           ENTRY                   ADDRESS         REF BY
           =====                   =======         ======
           cylCyclesSetMenuOnUp    00029952 
               calls direct
               CSTACK = 00000000 ( 0000000C )
    -------------------------------------------------------------------------
<CODE> 2 (was CODE)
  Relative segment, address: 00029A32 - 00029AA1 (0x70 bytes), align: 1
  Segment part 391.           Intra module refs:   newWindow
           ENTRY                   ADDRESS         REF BY
           =====                   =======         ======
           cylCyclesSetMenuOnDown
                                   00029A32 
               calls direct
               CSTACK = 00000000 ( 0000000C )
    -------------------------------------------------------------------------
<CODE> 2 (was CODE)
  Relative segment, address: 00022EA6 - 00023041 (0x19c bytes), align: 1
  Segment part 390.           Intra module refs:   newWindow
           ENTRY                   ADDRESS         REF BY
           =====                   =======         ======
           cylCyclesSetMenuOnLeft
                                   00022EA6 
               calls direct
               CSTACK = 00000000 ( 00000010 )
    -------------------------------------------------------------------------
<CODE> 2 (was CODE)
  Relative segment, address: 00022B6E - 00022D09 (0x19c bytes), align: 1
  Segment part 389.           Intra module refs:   newWindow
           ENTRY                   ADDRESS         REF BY
           =====                   =======         ======
           cylCyclesSetMenuOnRight
                                   00022B6E 
               calls direct
               CSTACK = 00000000 ( 00000010 )
    -------------------------------------------------------------------------
<CODE> 2 (was CODE)
  Relative segment, address: 00029784 - 000297F9 (0x76 bytes), align: 1
  Segment part 388.           Intra module refs:   newWindow
           ENTRY                   ADDRESS         REF BY
           =====                   =======         ======
           cylCyclesSetMenuOnOk    00029784 
               calls indirect
               CSTACK = 00000000 ( 00000006 )
    -------------------------------------------------------------------------
<CODE> 2 (was CODE)
  Relative segment, address: 0002AA96 - 0002AAC9 (0x34 bytes), align: 1
  Segment part 387.           Intra module refs:   newWindow
           ENTRY                   ADDRESS         REF BY
           =====                   =======         ======
           cylCyclesSetMenuOnEsc   0002AA96 
               calls indirect
               CSTACK = 00000000 ( 00000006 )
    -------------------------------------------------------------------------
<CODE> 2 (was CODE)
  Relative segment, address: 0002B6B0 - 0002B6B1 (0x2 bytes), align: 1
  Segment part 386.           Intra module refs:   newWindow
           ENTRY                   ADDRESS         REF BY
           =====                   =======         ======
           cylCyclesSetMenuExec    0002B6B0 
               CSTACK = 00000000 ( 00000004 )
    -------------------------------------------------------------------------
<CODE> 2 (was CODE)
  Relative segment, address: 0001EE64 - 0001F0D9 (0x276 bytes), align: 1
  Segment part 385.           Intra module refs:   newWindow
           ENTRY                   ADDRESS         REF BY
           =====                   =======         ======
           languageSetMenuShow     0001EE64 
               calls direct
               CSTACK = 00000000 ( 00000012 )
    -------------------------------------------------------------------------
<CODE> 2 (was CODE)
  Relative segment, address: 000200F8 - 0002032D (0x236 bytes), align: 1
  Segment part 384.           Intra module refs:   newWindow
           ENTRY                   ADDRESS         REF BY
           =====                   =======         ======
           languageSetMenuOnUp     000200F8 
               calls direct
               CSTACK = 00000000 ( 00000008 )
    -------------------------------------------------------------------------
<CODE> 2 (was CODE)
  Relative segment, address: 0001FEC2 - 000200F7 (0x236 bytes), align: 1
  Segment part 383.           Intra module refs:   newWindow
           ENTRY                   ADDRESS         REF BY
           =====                   =======         ======
           languageSetMenuOnDown   0001FEC2 
               calls direct
               CSTACK = 00000000 ( 00000008 )
    -------------------------------------------------------------------------
<CODE> 2 (was CODE)
  Relative segment, address: 0002265C - 00022815 (0x1ba bytes), align: 1
  Segment part 382.           Intra module refs:   newWindow
           ENTRY                   ADDRESS         REF BY
           =====                   =======         ======
           languageSetMenuOnLeft   0002265C 
               calls direct
               CSTACK = 00000000 ( 0000000A )
    -------------------------------------------------------------------------
<CODE> 2 (was CODE)
  Relative segment, address: 00022816 - 000229CF (0x1ba bytes), align: 1
  Segment part 381.           Intra module refs:   newWindow
           ENTRY                   ADDRESS         REF BY
           =====                   =======         ======
           languageSetMenuOnRight
                                   00022816 
               calls direct
               CSTACK = 00000000 ( 0000000A )
    -------------------------------------------------------------------------
<CODE> 2 (was CODE)
  Relative segment, address: 0002986E - 000298DF (0x72 bytes), align: 1
  Segment part 380.           Intra module refs:   newWindow
           ENTRY                   ADDRESS         REF BY
           =====                   =======         ======
           languageSetMenuOnOk     0002986E 
               calls indirect
               CSTACK = 00000000 ( 00000006 )
    -------------------------------------------------------------------------
<CODE> 2 (was CODE)
  Relative segment, address: 0002AF94 - 0002AFC3 (0x30 bytes), align: 1
  Segment part 379.           Intra module refs:   newWindow
           ENTRY                   ADDRESS         REF BY
           =====                   =======         ======
           languageSetMenuOnEsc    0002AF94 
               calls indirect
               CSTACK = 00000000 ( 00000006 )
    -------------------------------------------------------------------------
<CODE> 2 (was CODE)
  Relative segment, address: 0002B6AE - 0002B6AF (0x2 bytes), align: 1
  Segment part 378.           Intra module refs:   newWindow
           ENTRY                   ADDRESS         REF BY
           =====                   =======         ======
           languageSetMenuExec     0002B6AE 
               CSTACK = 00000000 ( 00000004 )
    -------------------------------------------------------------------------
<CODE> 2 (was CODE)
  Relative segment, address: 0001BB8C - 0001BE6F (0x2e4 bytes), align: 1
  Segment part 377.           Intra module refs:   newWindow
           ENTRY                   ADDRESS         REF BY
           =====                   =======         ======
           sysTimeSetMenuShow      0001BB8C 
               calls direct
               CSTACK = 00000000 ( 0000000C )
    -------------------------------------------------------------------------
<CODE> 2 (was CODE)
  Relative segment, address: 000291AE - 0002922F (0x82 bytes), align: 1
  Segment part 376.           Intra module refs:   newWindow
           ENTRY                   ADDRESS         REF BY
           =====                   =======         ======
           sysTimeSetMenuOnUp      000291AE 
               calls direct
               CSTACK = 00000000 ( 00000008 )
    -------------------------------------------------------------------------
<CODE> 2 (was CODE)
  Relative segment, address: 00029230 - 000292B1 (0x82 bytes), align: 1
  Segment part 375.           Intra module refs:   newWindow
           ENTRY                   ADDRESS         REF BY
           =====                   =======         ======
           sysTimeSetMenuOnDown    00029230 
               calls direct
               CSTACK = 00000000 ( 00000008 )
    -------------------------------------------------------------------------
<CODE> 2 (was CODE)
  Relative segment, address: 00023FA2 - 0002410F (0x16e bytes), align: 1
  Segment part 374.           Intra module refs:   newWindow
           ENTRY                   ADDRESS         REF BY
           =====                   =======         ======
           sysTimeSetMenuOnLeft    00023FA2 
               calls direct
               CSTACK = 00000000 ( 0000000A )
    -------------------------------------------------------------------------
<CODE> 2 (was CODE)
  Relative segment, address: 00024110 - 0002427D (0x16e bytes), align: 1
  Segment part 373.           Intra module refs:   newWindow
           ENTRY                   ADDRESS         REF BY
           =====                   =======         ======
           sysTimeSetMenuOnRight   00024110 
               calls direct
               CSTACK = 00000000 ( 0000000A )
    -------------------------------------------------------------------------
<CODE> 2 (was CODE)
  Relative segment, address: 00028DE2 - 00028E71 (0x90 bytes), align: 1
  Segment part 372.           Intra module refs:   newWindow
           ENTRY                   ADDRESS         REF BY
           =====                   =======         ======
           sysTimeSetMenuOnOk      00028DE2 
               calls direct and indirect
               CSTACK = 00000000 ( 00000006 )
    -------------------------------------------------------------------------
<CODE> 2 (was CODE)
  Relative segment, address: 0002AD24 - 0002AD53 (0x30 bytes), align: 1
  Segment part 371.           Intra module refs:   newWindow
           ENTRY                   ADDRESS         REF BY
           =====                   =======         ======
           sysTimeSetMenuOnEsc     0002AD24 
               calls indirect
               CSTACK = 00000000 ( 00000006 )
    -------------------------------------------------------------------------
<CODE> 2 (was CODE)
  Relative segment, address: 0002B690 - 0002B691 (0x2 bytes), align: 1
  Segment part 370.           Intra module refs:   newWindow
           ENTRY                   ADDRESS         REF BY
           =====                   =======         ======
           sysTimeSetMenuExec      0002B690 
               CSTACK = 00000000 ( 00000004 )
    -------------------------------------------------------------------------
<CODE> 2 (was CODE)
  Relative segment, address: 0001BE70 - 0001C153 (0x2e4 bytes), align: 1
  Segment part 369.           Intra module refs:   newWindow
           ENTRY                   ADDRESS         REF BY
           =====                   =======         ======
           timePowerOffSetMenuShow
                                   0001BE70 
               calls direct
               CSTACK = 00000000 ( 00000012 )
    -------------------------------------------------------------------------
<CODE> 2 (was CODE)
  Relative segment, address: 00018A6A - 00018DB1 (0x348 bytes), align: 1
  Segment part 368.           Intra module refs:   newWindow
           ENTRY                   ADDRESS         REF BY
           =====                   =======         ======
           timePowerOffSetMenuOnUp
                                   00018A6A 
               calls direct
               CSTACK = 00000000 ( 00000012 )
    -------------------------------------------------------------------------
<CODE> 2 (was CODE)
  Relative segment, address: 00018DB2 - 000190F9 (0x348 bytes), align: 1
  Segment part 367.           Intra module refs:   newWindow
           ENTRY                   ADDRESS         REF BY
           =====                   =======         ======
           timePowerOffSetMenuOnDown
                                   00018DB2 
               calls direct
               CSTACK = 00000000 ( 00000012 )
    -------------------------------------------------------------------------
<CODE> 2 (was CODE)
  Relative segment, address: 000280D0 - 00028181 (0xb2 bytes), align: 1
  Segment part 364.           Intra module refs:   newWindow
           ENTRY                   ADDRESS         REF BY
           =====                   =======         ======
           timePowerOffSetMenuOnOk
                                   000280D0 
               calls direct and indirect
               CSTACK = 00000000 ( 0000000A )
    -------------------------------------------------------------------------
<CODE> 2 (was CODE)
  Relative segment, address: 0002AF04 - 0002AF33 (0x30 bytes), align: 1
  Segment part 363.           Intra module refs:   newWindow
           ENTRY                   ADDRESS         REF BY
           =====                   =======         ======
           timePowerOffSetMenuOnEsc
                                   0002AF04 
               calls indirect
               CSTACK = 00000000 ( 00000006 )
    -------------------------------------------------------------------------
<CODE> 2 (was CODE)
  Relative segment, address: 0002B67A - 0002B67B (0x2 bytes), align: 1
  Segment part 362.           Intra module refs:   newWindow
           ENTRY                   ADDRESS         REF BY
           =====                   =======         ======
           timePowerOffSetMenuExec
                                   0002B67A 
               CSTACK = 00000000 ( 00000004 )
    -------------------------------------------------------------------------
<CODE> 2 (was CODE)
  Relative segment, address: 0002A27A - 0002A2CB (0x52 bytes), align: 1
  Segment part 361.           Intra module refs:   timePowerOffSetMenuOnDown
                                                   timePowerOffSetMenuOnUp
                                                   timePowerOffSetMenuShow
           ENTRY                   ADDRESS         REF BY
           =====                   =======         ======
           power_status_show       0002A27A 
               calls direct
               CSTACK = 00000000 ( 0000000A )
    -------------------------------------------------------------------------
<CODE> 2 (was CODE)
  Relative segment, address: 0001ACF2 - 0001AFE7 (0x2f6 bytes), align: 1
  Segment part 360.           Intra module refs:   newWindow
           ENTRY                   ADDRESS         REF BY
           =====                   =======         ======
           powerTimeSetMenuShow    0001ACF2 
               calls direct
               CSTACK = 00000000 ( 0000000C )
    -------------------------------------------------------------------------
<CODE> 2 (was CODE)
  Relative segment, address: 000294AE - 00029527 (0x7a bytes), align: 1
  Segment part 359.           Intra module refs:   newWindow
           ENTRY                   ADDRESS         REF BY
           =====                   =======         ======
           powerTimeSetMenuOnUp    000294AE 
               calls direct
               CSTACK = 00000000 ( 00000008 )
    -------------------------------------------------------------------------
<CODE> 2 (was CODE)
  Relative segment, address: 000295A2 - 0002961B (0x7a bytes), align: 1
  Segment part 358.           Intra module refs:   newWindow
           ENTRY                   ADDRESS         REF BY
           =====                   =======         ======
           powerTimeSetMenuOnDown
                                   000295A2 
               calls direct
               CSTACK = 00000000 ( 00000008 )
    -------------------------------------------------------------------------
<CODE> 2 (was CODE)
  Relative segment, address: 000220FA - 000222D3 (0x1da bytes), align: 1
  Segment part 357.           Intra module refs:   newWindow
           ENTRY                   ADDRESS         REF BY
           =====                   =======         ======
           powerTimeSetMenuOnLeft
                                   000220FA 
               calls direct
               CSTACK = 00000000 ( 0000000A )
    -------------------------------------------------------------------------
<CODE> 2 (was CODE)
  Relative segment, address: 00021F20 - 000220F9 (0x1da bytes), align: 1
  Segment part 356.           Intra module refs:   newWindow
           ENTRY                   ADDRESS         REF BY
           =====                   =======         ======
           powerTimeSetMenuOnRight
                                   00021F20 
               calls direct
               CSTACK = 00000000 ( 0000000A )
    -------------------------------------------------------------------------
<CODE> 2 (was CODE)
  Relative segment, address: 0002A0D2 - 0002A127 (0x56 bytes), align: 1
  Segment part 355.           Intra module refs:   newWindow
           ENTRY                   ADDRESS         REF BY
           =====                   =======         ======
           powerTimeSetMenuOnOk    0002A0D2 
               calls indirect
               CSTACK = 00000000 ( 00000006 )
    -------------------------------------------------------------------------
<CODE> 2 (was CODE)
  Relative segment, address: 0002AC94 - 0002ACC3 (0x30 bytes), align: 1
  Segment part 354.           Intra module refs:   newWindow
           ENTRY                   ADDRESS         REF BY
           =====                   =======         ======
           powerTimeSetMenuOnEsc   0002AC94 
               calls indirect
               CSTACK = 00000000 ( 00000006 )
    -------------------------------------------------------------------------
<CODE> 2 (was CODE)
  Relative segment, address: 0002B682 - 0002B683 (0x2 bytes), align: 1
  Segment part 353.           Intra module refs:   newWindow
           ENTRY                   ADDRESS         REF BY
           =====                   =======         ======
           powerTimeSetMenuExec    0002B682 
               CSTACK = 00000000 ( 00000004 )
    -------------------------------------------------------------------------
<CODE> 1 (was CODE)
  Relative segment, address: D16A - D9BD (0x854 bytes), align: 1
  Segment part 352.           Intra module refs:   newWindow
           ENTRY                   ADDRESS         REF BY
           =====                   =======         ======
           inputNumberMenuShow     D16A 
               calls direct
               CSTACK = 00000000 ( 0000000A )
    -------------------------------------------------------------------------
<CODE> 2 (was CODE)
  Relative segment, address: 00025B6E - 00025C8F (0x122 bytes), align: 1
  Segment part 351.           Intra module refs:   newWindow
           ENTRY                   ADDRESS         REF BY
           =====                   =======         ======
           inputNumberMenuOnUp     00025B6E 
               calls direct
               CSTACK = 00000000 ( 00000006 )
    -------------------------------------------------------------------------
<CODE> 2 (was CODE)
  Relative segment, address: 00025C90 - 00025DB1 (0x122 bytes), align: 1
  Segment part 350.           Intra module refs:   newWindow
           ENTRY                   ADDRESS         REF BY
           =====                   =======         ======
           inputNumberMenuOnDown   00025C90 
               calls direct
               CSTACK = 00000000 ( 00000006 )
    -------------------------------------------------------------------------
<CODE> 2 (was CODE)
  Relative segment, address: 00019A9E - 00019DD3 (0x336 bytes), align: 1
  Segment part 349.           Intra module refs:   newWindow
           ENTRY                   ADDRESS         REF BY
           =====                   =======         ======
           inputNumberMenuOnLeft   00019A9E 
               calls direct
               CSTACK = 00000000 ( 0000000A )
    -------------------------------------------------------------------------
<CODE> 2 (was CODE)
  Relative segment, address: 00019432 - 00019767 (0x336 bytes), align: 1
  Segment part 348.           Intra module refs:   newWindow
           ENTRY                   ADDRESS         REF BY
           =====                   =======         ======
           inputNumberMenuOnRight
                                   00019432 
               calls direct
               CSTACK = 00000000 ( 0000000A )
    -------------------------------------------------------------------------
<CODE> 2 (was CODE)
  Relative segment, address: 00026D8A - 00026E85 (0xfc bytes), align: 1
  Segment part 347.           Intra module refs:   newWindow
           ENTRY                   ADDRESS         REF BY
           =====                   =======         ======
           inputNumberMenuOnOk     00026D8A 
               calls indirect
               CSTACK = 00000000 ( 00000006 )
    -------------------------------------------------------------------------
<CODE> 2 (was CODE)
  Relative segment, address: 0002AB32 - 0002AB65 (0x34 bytes), align: 1
  Segment part 346.           Intra module refs:   newWindow
           ENTRY                   ADDRESS         REF BY
           =====                   =======         ======
           inputNumberMenuOnEsc    0002AB32 
               calls indirect
               CSTACK = 00000000 ( 00000006 )
    -------------------------------------------------------------------------
<CODE> 2 (was CODE)
  Relative segment, address: 0002381E - 000239A3 (0x186 bytes), align: 1
  Segment part 344.           Intra module refs:   newWindow
           ENTRY                   ADDRESS         REF BY
           =====                   =======         ======
           clewMenuShow            0002381E 
               calls direct
               CSTACK = 00000000 ( 0000000A )
    -------------------------------------------------------------------------
<CODE> 2 (was CODE)
  Relative segment, address: 0002653A - 00026647 (0x10e bytes), align: 1
  Segment part 343.           Intra module refs:   newWindow
           ENTRY                   ADDRESS         REF BY
           =====                   =======         ======
           clewMenuOnLeft          0002653A 
               calls direct
               CSTACK = 00000000 ( 0000000A )
    -------------------------------------------------------------------------
<CODE> 2 (was CODE)
  Relative segment, address: 0002642C - 00026539 (0x10e bytes), align: 1
  Segment part 342.           Intra module refs:   newWindow
           ENTRY                   ADDRESS         REF BY
           =====                   =======         ======
           clewMenuOnRight         0002642C 
               calls direct
               CSTACK = 00000000 ( 0000000A )
    -------------------------------------------------------------------------
<CODE> 2 (was CODE)
  Relative segment, address: 00027EA8 - 00027F61 (0xba bytes), align: 1
  Segment part 341.           Intra module refs:   newWindow
           ENTRY                   ADDRESS         REF BY
           =====                   =======         ======
           clewMenuOnOk            00027EA8 
               calls direct and indirect
               CSTACK = 00000000 ( 00000006 )
    -------------------------------------------------------------------------
<CODE> 2 (was CODE)
  Relative segment, address: 0002A450 - 0002A499 (0x4a bytes), align: 1
  Segment part 340.           Intra module refs:   newWindow
           ENTRY                   ADDRESS         REF BY
           =====                   =======         ======
           clewMenuOnEsc           0002A450 
               calls indirect
               CSTACK = 00000000 ( 00000006 )
    -------------------------------------------------------------------------
<CODE> 2 (was CODE)
  Relative segment, address: 0002B6A2 - 0002B6A3 (0x2 bytes), align: 1
  Segment part 339.           Intra module refs:   newWindow
           ENTRY                   ADDRESS         REF BY
           =====                   =======         ======
           clewMenuExec            0002B6A2 
               CSTACK = 00000000 ( 00000004 )
    -------------------------------------------------------------------------
<CODE> 2 (was CODE)
  Relative segment, address: 00025ED2 - 00025FE9 (0x118 bytes), align: 1
  Segment part 338.           Intra module refs:   newWindow
           ENTRY                   ADDRESS         REF BY
           =====                   =======         ======
           calibrateFlowMenuShow   00025ED2 
               calls direct
               CSTACK = 00000000 ( 0000000C )
    -------------------------------------------------------------------------
<CODE> 2 (was CODE)
  Relative segment, address: 000282D8 - 00028381 (0xaa bytes), align: 1
  Segment part 337.           Intra module refs:   newWindow
           ENTRY                   ADDRESS         REF BY
           =====                   =======         ======
           calibrateFlowMenuOnUp   000282D8 
               calls direct
               CSTACK = 00000000 ( 00000004 )
    -------------------------------------------------------------------------
<CODE> 2 (was CODE)
  Relative segment, address: 0002822E - 000282D7 (0xaa bytes), align: 1
  Segment part 336.           Intra module refs:   newWindow
           ENTRY                   ADDRESS         REF BY
           =====                   =======         ======
           calibrateFlowMenuOnDown
                                   0002822E 
               calls direct
               CSTACK = 00000000 ( 00000004 )
    -------------------------------------------------------------------------
<CODE> 2 (was CODE)
  Relative segment, address: 0002A6D0 - 0002A711 (0x42 bytes), align: 1
  Segment part 335.           Intra module refs:   newWindow
           ENTRY                   ADDRESS         REF BY
           =====                   =======         ======
           calibrateFlowMenuOnLeft
                                   0002A6D0 
               calls direct
               CSTACK = 00000000 ( 0000000A )
    -------------------------------------------------------------------------
<CODE> 2 (was CODE)
  Relative segment, address: 0002A712 - 0002A753 (0x42 bytes), align: 1
  Segment part 334.           Intra module refs:   newWindow
           ENTRY                   ADDRESS         REF BY
           =====                   =======         ======
           calibrateFlowMenuOnRight
                                   0002A712 
               calls direct
               CSTACK = 00000000 ( 0000000A )
    -------------------------------------------------------------------------
<CODE> 2 (was CODE)
  Relative segment, address: 0002A68C - 0002A6CF (0x44 bytes), align: 1
  Segment part 333.           Intra module refs:   newWindow
           ENTRY                   ADDRESS         REF BY
           =====                   =======         ======
           calibrateFlowMenuOnOk   0002A68C 
               calls direct and indirect
               CSTACK = 00000000 ( 00000006 )
    -------------------------------------------------------------------------
<CODE> 2 (was CODE)
  Relative segment, address: 0002AB66 - 0002AB99 (0x34 bytes), align: 1
  Segment part 332.           Intra module refs:   newWindow
           ENTRY                   ADDRESS         REF BY
           =====                   =======         ======
           calibrateFlowMenuOnEsc
                                   0002AB66 
               calls direct and indirect
               CSTACK = 00000000 ( 00000006 )
    -------------------------------------------------------------------------
<CODE> 2 (was CODE)
  Relative segment, address: 0002A1D2 - 0002A225 (0x54 bytes), align: 1
  Segment part 331.           Intra module refs:   newWindow
           ENTRY                   ADDRESS         REF BY
           =====                   =======         ======
           calibrateFlowMenuExec   0002A1D2 
               calls direct
               CSTACK = 00000000 ( 00000006 )
    -------------------------------------------------------------------------
<CODE> 2 (was CODE)
  Relative segment, address: 000229D0 - 00022B6D (0x19e bytes), align: 1
  Segment part 330.           Intra module refs:   newWindow
           ENTRY                   ADDRESS         REF BY
           =====                   =======         ======
           errFlowMenuShow         000229D0 
               calls direct
               CSTACK = 00000000 ( 00000006 )
    -------------------------------------------------------------------------
<CODE> 2 (was CODE)
  Relative segment, address: 0002AF34 - 0002AF63 (0x30 bytes), align: 1
  Segment part 329.           Intra module refs:   newWindow
           ENTRY                   ADDRESS         REF BY
           =====                   =======         ======
           errFlowMenuOnOk         0002AF34 
               calls indirect
               CSTACK = 00000000 ( 00000006 )
    -------------------------------------------------------------------------
<CODE> 2 (was CODE)
  Relative segment, address: 00025FEA - 000260FF (0x116 bytes), align: 1
  Segment part 328.           Intra module refs:   cylStartMenuExec
                                                   cylStartMenuShow
                                                   manuStartMenuExec
                                                   manuStartMenuShow
                                                   timeStartMenuExec
                                                   timeStartMenuShow
                                                   topCylMenuExec
                                                   topCylMenuShow
                                                   topManuMenuExec
                                                   topManuMenuShow
                                                   topTimeMenuExec
                                                   topTimeMenuShow
           ENTRY                   ADDRESS         REF BY
           =====                   =======         ======
           show_time               00025FEA 
               calls direct
               CSTACK = 00000000 ( 00000006 )
    -------------------------------------------------------------------------
DATA16_Z
  Relative segment, address: 1FAB - 1FAB (0x1 bytes), align: 0
  Segment part 301.           Intra module refs:   show_time
           LOCAL                   ADDRESS         
           =====                   =======         
           show_time::old_hour     1FAB 
    -------------------------------------------------------------------------
DATA16_Z
  Relative segment, address: 1FAC - 1FAC (0x1 bytes), align: 0
  Segment part 302.           Intra module refs:   show_time
           LOCAL                   ADDRESS         
           =====                   =======         
           show_time::old_min      1FAC 
    -------------------------------------------------------------------------
DATA16_Z
  Relative segment, address: 1FAD - 1FAD (0x1 bytes), align: 0
  Segment part 303.           Intra module refs:   show_time
           LOCAL                   ADDRESS         
           =====                   =======         
           show_time::old_sec      1FAD 
    -------------------------------------------------------------------------
<CODE> 2 (was CODE)
  Relative segment, address: 00029432 - 000294AD (0x7c bytes), align: 1
  Segment part 327.           Intra module refs:   cylStartMenuExec
                                                   manuStartMenuExec
                                                   timeStartMenuExec
                                                   twoErrMenuOkKey
           ENTRY                   ADDRESS         REF BY
           =====                   =======         ======
           status_show             00029432 
               calls direct
               CSTACK = 00000000 ( 0000000A )
    -------------------------------------------------------------------------
<CODE> 2 (was CODE)
  Relative segment, address: 0002801A - 000280CF (0xb6 bytes), align: 1
  Segment part 326.           Intra module refs:   cylStartMenuExec
                                                   cylStartMenuShow
                                                   manuStartMenuExec
                                                   manuStartMenuShow
                                                   timeStartMenuExec
                                                   timeStartMenuShow
                                                   topCylMenuShow
                                                   topManuMenuShow
                                                   topTimeMenuShow
           ENTRY                   ADDRESS         REF BY
           =====                   =======         ======
           flow_show               0002801A 
               calls direct
               CSTACK = 00000000 ( 00000006 )
    -------------------------------------------------------------------------
<CODE> 2 (was CODE)
  Relative segment, address: 00027414 - 000274F3 (0xe0 bytes), align: 1
  Segment part 325.           Intra module refs:   cylStartMenuExec
                                                   cylStartMenuShow
                                                   manuStartMenuExec
                                                   manuStartMenuShow
                                                   timeStartMenuExec
                                                   timeStartMenuShow
                                                   topCylMenuShow
                                                   topManuMenuShow
                                                   topTimeMenuShow
           ENTRY                   ADDRESS         REF BY
           =====                   =======         ======
           used_time_show          00027414 
               calls direct
               CSTACK = 00000000 ( 00000008 )
    -------------------------------------------------------------------------
<CODE> 2 (was CODE)
  Relative segment, address: 00027C60 - 00027D23 (0xc4 bytes), align: 1
  Segment part 324.           Intra module refs:   cylStartMenuExec
                                                   cylStartMenuShow
                                                   manuStartMenuExec
                                                   manuStartMenuShow
                                                   topCylMenuShow
                                                   topManuMenuShow
           ENTRY                   ADDRESS         REF BY
           =====                   =======         ======
           used_volume_show        00027C60 
               calls direct
               CSTACK = 00000000 ( 00000010 )
    -------------------------------------------------------------------------
<CODE> 2 (was CODE)
  Relative segment, address: 00025922 - 00025A49 (0x128 bytes), align: 1
  Segment part 323.           Intra module refs:   cylStartMenuExec
                                                   cylStartMenuShow
                                                   manuStartMenuExec
                                                   manuStartMenuShow
                                                   timeStartMenuExec
                                                   timeStartMenuShow
                                                   topCylMenuShow
                                                   topManuMenuShow
                                                   topTimeMenuShow
           ENTRY                   ADDRESS         REF BY
           =====                   =======         ======
           percent_show            00025922 
               calls direct
               CSTACK = 00000000 ( 00000010 )
    -------------------------------------------------------------------------
<CODE> 2 (was CODE)
  Relative segment, address: 00010CD4 - 000112C3 (0x5f0 bytes), align: 1
  Segment part 322.           Intra module refs:   cylFlowSetMenuShow
                                                   groupFlowSetMenuShow
                                                   manuFlowSetMenuShow
           ENTRY                   ADDRESS         REF BY
           =====                   =======         ======
           flowSetShow             00010CD4 
               calls direct
               CSTACK = 00000000 ( 00000018 )
    -------------------------------------------------------------------------
<CODE> 2 (was CODE)
  Relative segment, address: 0001AFE8 - 0001B2D3 (0x2ec bytes), align: 1
  Segment part 321.           Intra module refs:   cylFlowSetMenuOnUp
                                                   groupFlowSetMenuOnUp
                                                   manuFlowSetMenuOnUp
           ENTRY                   ADDRESS         REF BY
           =====                   =======         ======
           flowSetUp               0001AFE8 
               calls direct
               CSTACK = 00000000 ( 0000000C )
    -------------------------------------------------------------------------
<CODE> 2 (was CODE)
  Relative segment, address: 0001B2D4 - 0001B5BD (0x2ea bytes), align: 1
  Segment part 320.           Intra module refs:   cylFlowSetMenuOnDown
                                                   groupFlowSetMenuOnDown
                                                   manuFlowSetMenuOnDown
           ENTRY                   ADDRESS         REF BY
           =====                   =======         ======
           flowSetDown             0001B2D4 
               calls direct
               CSTACK = 00000000 ( 0000000C )
    -------------------------------------------------------------------------
<CODE> 2 (was CODE)
  Relative segment, address: 000162DC - 00016701 (0x426 bytes), align: 1
  Segment part 319.           Intra module refs:   cylFlowSetMenuOnLeft
                                                   groupFlowSetMenuOnLeft
                                                   manuFlowSetMenuOnLeft
           ENTRY                   ADDRESS         REF BY
           =====                   =======         ======
           flowSetLeft             000162DC 
               calls direct
               CSTACK = 00000000 ( 00000010 )
    -------------------------------------------------------------------------
<CODE> 2 (was CODE)
  Relative segment, address: 00016702 - 00016B27 (0x426 bytes), align: 1
  Segment part 318.           Intra module refs:   cylFlowSetMenuOnRight
                                                   groupFlowSetMenuOnRight
                                                   manuFlowSetMenuOnRight
           ENTRY                   ADDRESS         REF BY
           =====                   =======         ======
           flowSetRight            00016702 
               calls direct
               CSTACK = 00000000 ( 00000010 )
    -------------------------------------------------------------------------
<CODE> 2 (was CODE)
  Relative segment, address: 00029D7C - 00029DDF (0x64 bytes), align: 1
  Segment part 317.           Intra module refs:   groupParaSetMenuOnDown
                                                   groupParaSetMenuOnUp
                                                   groupParaSetMenuShow
           ENTRY                   ADDRESS         REF BY
           =====                   =======         ======
           group_status_set        00029D7C 
               calls direct
               CSTACK = 00000000 ( 0000000C )
    -------------------------------------------------------------------------
<CODE> 2 (was CODE)
  Relative segment, address: 00026C8A - 00026D89 (0x100 bytes), align: 1
  Segment part 316.           Intra module refs:   calibrateFlowMenuShow
                                                   cylCyclesSetMenuShow
                                                   cylDelaySetMenuShow
                                                   cylParaSetMenuShow
                                                   cylSmpTimeSetMenuShow
                                                   flowSetShow
                                                   groupParaSetMenuShow
                                                   groupSetMenuShow
                                                   languageSetMenuShow
                                                   modSetMenuShow
                                                   powerTimeSetMenuShow
                                                   sysTimeSetMenuShow
                                                   timePowerOffSetMenuOnDown
                                                   timePowerOffSetMenuOnUp
                                                   timePowerOffSetMenuShow
           ENTRY                   ADDRESS         REF BY
           =====                   =======         ======
           draw_dialog             00026C8A 
               calls direct
               CSTACK = 00000000 ( 00000006 )
    -------------------------------------------------------------------------
<CODE> 2 (was CODE)
  Relative segment, address: 000147A4 - 00014C5D (0x4ba bytes), align: 1
  Segment part 315.           Intra module refs:   timeStartMenuExec
           ENTRY                   ADDRESS         REF BY
           =====                   =======         ======
           groupMoveFont           000147A4 
               calls direct
               CSTACK = 00000000 ( 00000004 )
    -------------------------------------------------------------------------
DATA16_Z
  Relative segment, address: 1DB4 - 1DB5 (0x2 bytes), align: 1
  Segment part 304.           Intra module refs:   groupMoveFont
           LOCAL                   ADDRESS         
           =====                   =======         
           groupMoveFont::cyls     1DB4 
    -------------------------------------------------------------------------
DATA16_I
  Relative segment, address: 1C1E - 1C31 (0x14 bytes), align: 1
  Segment part 305.           Intra module refs:   groupMoveFont
           LOCAL                   ADDRESS         
           =====                   =======         
           groupMoveFont::move     1C1E 
    -------------------------------------------------------------------------
DATA16_I
  Relative segment, address: 1C32 - 1C45 (0x14 bytes), align: 1
  Segment part 307.           Intra module refs:   groupMoveFont
           LOCAL                   ADDRESS         
           =====                   =======         
           groupMoveFont::move_wait
                                   1C32 
    -------------------------------------------------------------------------
<CODE> 2 (was CODE)
  Relative segment, address: 000142C2 - 000147A3 (0x4e2 bytes), align: 1
  Segment part 314.           Intra module refs:   cylStartMenuExec
           ENTRY                   ADDRESS         REF BY
           =====                   =======         ======
           cylsMoveFont            000142C2 
               calls direct
               CSTACK = 00000000 ( 00000004 )
    -------------------------------------------------------------------------
DATA16_Z
  Relative segment, address: 1DB6 - 1DB7 (0x2 bytes), align: 1
  Segment part 309.           Intra module refs:   cylsMoveFont
           LOCAL                   ADDRESS         
           =====                   =======         
           cylsMoveFont::cyls      1DB6 
    -------------------------------------------------------------------------
DATA16_I
  Relative segment, address: 1C46 - 1C5D (0x18 bytes), align: 1
  Segment part 310.           Intra module refs:   cylsMoveFont
           LOCAL                   ADDRESS         
           =====                   =======         
           cylsMoveFont::move      1C46 
    -------------------------------------------------------------------------
DATA16_I
  Relative segment, address: 1C5E - 1C75 (0x18 bytes), align: 1
  Segment part 312.           Intra module refs:   cylsMoveFont
           LOCAL                   ADDRESS         
           =====                   =======         
           cylsMoveFont::move_wait
                                   1C5E 
    -------------------------------------------------------------------------
DATA16_ID
  Relative segment, address: 8350 - 835D (0xe bytes), align: 1
  Segment part 261.           Intra module refs:   set_bar_text
    -------------------------------------------------------------------------
DATA16_ID
  Relative segment, address: 835E - 836B (0xe bytes), align: 1
  Segment part 263.           Intra module refs:   set_bar_text_chn
    -------------------------------------------------------------------------
DATA16_ID
  Relative segment, address: 836C - 837F (0x14 bytes), align: 1
  Segment part 306.           Intra module refs:   groupMoveFont::move
    -------------------------------------------------------------------------
DATA16_ID
  Relative segment, address: 8380 - 8393 (0x14 bytes), align: 1
  Segment part 308.           Intra module refs:   groupMoveFont::move_wait
    -------------------------------------------------------------------------
DATA16_ID
  Relative segment, address: 8394 - 83AB (0x18 bytes), align: 1
  Segment part 311.           Intra module refs:   cylsMoveFont::move
    -------------------------------------------------------------------------
DATA16_ID
  Relative segment, address: 83AC - 83C3 (0x18 bytes), align: 1
  Segment part 313.           Intra module refs:   cylsMoveFont::move_wait

    *************************************************************************

  FILE NAME : E:\工程\小个体\程序\samllSamp\Debug\Obj\ds1302.r43
  PROGRAM MODULE, NAME : ds1302

  SEGMENTS IN THE MODULE
  ======================
DATA16_AN
  Relative segment, address: 0200 - 0201 (0x2 bytes), align: 0
  Segment part 1. ROOT.       Intra module refs:   DS1302_Read
                                                   scanKey (key)
           ENTRY                   ADDRESS         REF BY
           =====                   =======         ======
           _A_PAIN_L               0200 
           LOCAL                   ADDRESS         
           =====                   =======         
           PAIN                    0200 
           PAIN_H                  0201 
           PAIN_L                  0200 
    -------------------------------------------------------------------------
DATA16_AN
  Relative segment, address: 0202 - 0203 (0x2 bytes), align: 0
  Segment part 2. ROOT.       Intra module refs:   DS1302_Read
                                                   DS1302_ReadData
                                                   DS1302_Write
                                                   DS1302_WriteData
                                                   check (test)
                                                   powerOff (test)
                                                   powerOn (test)
           ENTRY                   ADDRESS         REF BY
           =====                   =======         ======
           _A_PAOUT_L              0202 
           LOCAL                   ADDRESS         
           =====                   =======         
           PAOUT                   0202 
           PAOUT_H                 0203 
           PAOUT_L                 0202 
    -------------------------------------------------------------------------
DATA16_AN
  Relative segment, address: 0204 - 0205 (0x2 bytes), align: 0
  Segment part 3. ROOT.       Intra module refs:   DS1302_Read
                                                   Init_time_io
                                                   check (test)
                                                   initKey (key)
                                                   powerOff (test)
                                                   powerOn (test)
           ENTRY                   ADDRESS         REF BY
           =====                   =======         ======
           _A_PADIR_L              0204 
           LOCAL                   ADDRESS         
           =====                   =======         
           PADIR                   0204 
           PADIR_H                 0205 
           PADIR_L                 0204 
    -------------------------------------------------------------------------
<CODE> 2 (was CODE)
  Relative segment, address: 0002B608 - 0002B611 (0xa bytes), align: 1
  Segment part 14.
           ENTRY                   ADDRESS         REF BY
           =====                   =======         ======
           Init_time_io            0002B608        main (main)
               calls direct
               CSTACK = 00000000 ( 00000004 )
    -------------------------------------------------------------------------
<CODE> 2 (was CODE)
  Relative segment, address: 0002AD54 - 0002AD83 (0x30 bytes), align: 1
  Segment part 5.             Intra module refs:   DS1302_ReadData
                                                   DS1302_WriteData
           ENTRY                   ADDRESS         REF BY
           =====                   =======         ======
           DS1302_Write            0002AD54 
               CSTACK = 00000000 ( 00000004 )
    -------------------------------------------------------------------------
<CODE> 2 (was CODE)
  Relative segment, address: 0002A8D2 - 0002A90D (0x3c bytes), align: 1
  Segment part 8.             Intra module refs:   DS1302_ReadData
           ENTRY                   ADDRESS         REF BY
           =====                   =======         ======
           DS1302_Read             0002A8D2 
               CSTACK = 00000000 ( 00000004 )
    -------------------------------------------------------------------------
<CODE> 2 (was CODE)
  Relative segment, address: 0002B054 - 0002B081 (0x2e bytes), align: 1
  Segment part 6.             Intra module refs:   DS1302_charging
                                                   Set_time
           ENTRY                   ADDRESS         REF BY
           =====                   =======         ======
           DS1302_WriteData        0002B054 
               calls direct
               CSTACK = 00000000 ( 00000004 )
    -------------------------------------------------------------------------
<CODE> 2 (was CODE)
  Relative segment, address: 0002ABCC - 0002ABFD (0x32 bytes), align: 1
  Segment part 9.             Intra module refs:   Get_time
           ENTRY                   ADDRESS         REF BY
           =====                   =======         ======
           DS1302_ReadData         0002ABCC 
               calls direct
               CSTACK = 00000000 ( 00000004 )
    -------------------------------------------------------------------------
<CODE> 2 (was CODE)
  Relative segment, address: 0002893C - 000289D5 (0x9a bytes), align: 1
  Segment part 11.
           ENTRY                   ADDRESS         REF BY
           =====                   =======         ======
           Set_time                0002893C        sysTimeSetMenuOnOk (display)
               calls direct
               CSTACK = 00000000 ( 0000000C )
    -------------------------------------------------------------------------
<CODE> 2 (was CODE)
  Relative segment, address: 00028F00 - 00028F8D (0x8e bytes), align: 1
  Segment part 10.
           ENTRY                   ADDRESS         REF BY
           =====                   =======         ======
           Get_time                00028F00        keyEvent (display)
               calls direct
               CSTACK = 00000000 ( 00000008 )
    -------------------------------------------------------------------------
<CODE> 2 (was CODE)
  Relative segment, address: 0002B20C - 0002B22D (0x22 bytes), align: 1
  Segment part 7.             Intra module refs:   Init_time_io
           ENTRY                   ADDRESS         REF BY
           =====                   =======         ======
           DS1302_charging         0002B20C 
               calls direct
               CSTACK = 00000000 ( 00000004 )

    *************************************************************************

  FILE NAME : E:\工程\小个体\程序\samllSamp\Debug\Obj\flash.r43
  PROGRAM MODULE, NAME : flash

  SEGMENTS IN THE MODULE
  ======================
DATA16_AN
  Relative segment, address: 0140 - 0141 (0x2 bytes), align: 0
  Segment part 1. ROOT.       Intra module refs:   writeFlash
           ENTRY                   ADDRESS         REF BY
           =====                   =======         ======
           _A_FCTL1_L              0140 
           LOCAL                   ADDRESS         
           =====                   =======         
           FCTL1                   0140 
           FCTL1_H                 0141 
           FCTL1_L                 0140 
    -------------------------------------------------------------------------
DATA16_AN
  Relative segment, address: 0144 - 0145 (0x2 bytes), align: 0
  Segment part 2. ROOT.       Intra module refs:   writeFlash
           ENTRY                   ADDRESS         REF BY
           =====                   =======         ======
           _A_FCTL3_L              0144 
           LOCAL                   ADDRESS         
           =====                   =======         
           FCTL3                   0144 
           FCTL3_H                 0145 
           FCTL3_L                 0144 
    -------------------------------------------------------------------------
DATA16_Z
  Relative segment, address: 1DB8 - 1E37 (0x80 bytes), align: 1
  Segment part 4.             Intra module refs:   writeFlash
           LOCAL                   ADDRESS         
           =====                   =======         
           flashBuf                1DB8 
    -------------------------------------------------------------------------
<CODE> 2 (was CODE)
  Relative segment, address: 0002B612 - 0002B61B (0xa bytes), align: 1
  Segment part 6.
           ENTRY                   ADDRESS         REF BY
           =====                   =======         ======
           readFlash               0002B612        changeFlow (pump)
                                                   getPFromFlow (pump)
                                                   startPump (pump)
               CSTACK = 00000000 ( 00000004 )
    -------------------------------------------------------------------------
<CODE> 2 (was CODE)
  Relative segment, address: 0001A6FC - 0001A9F9 (0x2fe bytes), align: 1
  Segment part 5.
           ENTRY                   ADDRESS         REF BY
           =====                   =======         ======
           writeFlash              0001A6FC        writePToFlow (pump)
               CSTACK = 00000000 ( 00000010 )

    *************************************************************************

  FILE NAME : E:\工程\小个体\程序\samllSamp\Debug\Obj\kernel.r43
  PROGRAM MODULE, NAME : kernel

  SEGMENTS IN THE MODULE
  ======================
DATA16_Z
  Relative segment, address: 1FAE - 1FAE (0x1 bytes), align: 0
  Segment part 2.             Intra module refs:   runIntIsr
           ENTRY                   ADDRESS         REF BY
           =====                   =======         ======
           intCount                1FAE 
    -------------------------------------------------------------------------
<CODE> 2 (was CODE)
  Relative segment, address: 0002B650 - 0002B655 (0x6 bytes), align: 1
  Segment part 7.             Intra module refs:   initSys
           ENTRY                   ADDRESS         REF BY
           =====                   =======         ======
           idel                    0002B650 
               calls direct
               CSTACK = 00000000 ( 00000004 )
    -------------------------------------------------------------------------
<CODE> 2 (was CODE)
  Relative segment, address: 0002AA2E - 0002AA61 (0x34 bytes), align: 1
  Segment part 6.
           ENTRY                   ADDRESS         REF BY
           =====                   =======         ======
           initSys                 0002AA2E        main (main)
               calls direct
               CSTACK = 00000000 ( 00000008 )
    -------------------------------------------------------------------------
<CODE> 2 (was CODE)
  Relative segment, address: 0002ABFE - 0002AC2F (0x32 bytes), align: 1
  Segment part 5.             Intra module refs:   initSys
           ENTRY                   ADDRESS         REF BY
           =====                   =======         ======
           createTask              0002ABFE        main (main)
               calls direct
               CSTACK = 00000000 ( 00000012 )
    -------------------------------------------------------------------------
<CODE> 2 (was CODE)
  Relative segment, address: 0002B63A - 0002B641 (0x8 bytes), align: 1
  Segment part 4.
           ENTRY                   ADDRESS         REF BY
           =====                   =======         ======
           startSys                0002B63A        main (main)
               calls direct
               CSTACK = 00000000 ( 00000004 )
    -------------------------------------------------------------------------
<CODE> 2 (was CODE)
  Relative segment, address: 0002A90E - 0002A949 (0x3c bytes), align: 1
  Segment part 3.
           ENTRY                   ADDRESS         REF BY
           =====                   =======         ======
           runIntIsr               0002A90E        timerA0 (clock)
               calls direct and indirect
               CSTACK = 00000000 ( 00000008 )

    *************************************************************************

  FILE NAME : E:\工程\小个体\程序\samllSamp\Debug\Obj\key.r43
  PROGRAM MODULE, NAME : key

  SEGMENTS IN THE MODULE
  ======================
DATA16_AN
  Relative segment, address: 0282 - 0283 (0x2 bytes), align: 0
  Segment part 3. ROOT.       Intra module refs:   calcuTask (pump)
                                                   check (test)
                                                   initLcdBG
                                                   initPumpIo (pump)
                                                   scanKey
                                                   startPump (pump)
                                                   stopPump (pump)
           ENTRY                   ADDRESS         REF BY
           =====                   =======         ======
           _A_PEOUT_L              0282 
           LOCAL                   ADDRESS         
           =====                   =======         
           PEOUT                   0282 
           PEOUT_H                 0283 
           PEOUT_L                 0282 
    -------------------------------------------------------------------------
DATA16_AN
  Relative segment, address: 0284 - 0285 (0x2 bytes), align: 0
  Segment part 4. ROOT.       Intra module refs:   check (test)
                                                   initLcdBG
                                                   initPumpIo (pump)
           ENTRY                   ADDRESS         REF BY
           =====                   =======         ======
           _A_PEDIR_L              0284 
           LOCAL                   ADDRESS         
           =====                   =======         
           PEDIR                   0284 
           PEDIR_H                 0285 
           PEDIR_L                 0284 
    -------------------------------------------------------------------------
DATA16_Z
  Relative segment, address: 1E38 - 1E3B (0x4 bytes), align: 1
  Segment part 7.             Intra module refs:   getKey
                                                   initKey
                                                   scanKey
           LOCAL                   ADDRESS         
           =====                   =======         
           keySemaphore            1E38 
    -------------------------------------------------------------------------
DATA16_Z
  Relative segment, address: 1E3C - 1E3D (0x2 bytes), align: 1
  Segment part 8.             Intra module refs:   scanKey
           LOCAL                   ADDRESS         
           =====                   =======         
           kWaitList               1E3C 
    -------------------------------------------------------------------------
DATA16_Z
  Relative segment, address: 1FAF - 1FB2 (0x4 bytes), align: 0
  Segment part 9.             Intra module refs:   getKey
                                                   scanKey
           LOCAL                   ADDRESS         
           =====                   =======         
           keyBuf                  1FAF 
    -------------------------------------------------------------------------
DATA16_Z
  Relative segment, address: 1FB3 - 1FB3 (0x1 bytes), align: 0
  Segment part 10.            Intra module refs:   getKey
                                                   scanKey
           LOCAL                   ADDRESS         
           =====                   =======         
           index                   1FB3 
    -------------------------------------------------------------------------
<CODE> 2 (was CODE)
  Relative segment, address: 0002B534 - 0002B541 (0xe bytes), align: 1
  Segment part 17.            Intra module refs:   scanKey
           ENTRY                   ADDRESS         REF BY
           =====                   =======         ======
           initKey                 0002B534 
               calls direct
               CSTACK = 00000000 ( 00000004 )
    -------------------------------------------------------------------------
<CODE> 2 (was CODE)
  Relative segment, address: 0002B5FE - 0002B607 (0xa bytes), align: 1
  Segment part 16.            Intra module refs:   scanKey
           ENTRY                   ADDRESS         REF BY
           =====                   =======         ======
           initLcdBG               0002B5FE 
               CSTACK = 00000000 ( 00000004 )
    -------------------------------------------------------------------------
<CODE> 2 (was CODE)
  Relative segment, address: 00023376 - 00023507 (0x192 bytes), align: 1
  Segment part 18.
           ENTRY                   ADDRESS         REF BY
           =====                   =======         ======
           scanKey                 00023376        main (main)
               calls direct
               CSTACK = 00000000 ( 0000000C )
    -------------------------------------------------------------------------
DATA16_Z
  Relative segment, address: 1FB4 - 1FB4 (0x1 bytes), align: 0
  Segment part 11.            Intra module refs:   scanKey
           LOCAL                   ADDRESS         
           =====                   =======         
           scanKey::keyVal         1FB4 
    -------------------------------------------------------------------------
DATA16_Z
  Relative segment, address: 1FB5 - 1FB5 (0x1 bytes), align: 0
  Segment part 12.            Intra module refs:   scanKey
           LOCAL                   ADDRESS         
           =====                   =======         
           scanKey::key            1FB5 
    -------------------------------------------------------------------------
DATA16_Z
  Relative segment, address: 1FB6 - 1FB6 (0x1 bytes), align: 0
  Segment part 13.            Intra module refs:   scanKey
           LOCAL                   ADDRESS         
           =====                   =======         
           scanKey::P2INS          1FB6 
    -------------------------------------------------------------------------
<CODE> 2 (was CODE)
  Relative segment, address: 0002A49A - 0002A4E3 (0x4a bytes), align: 1
  Segment part 15.
           ENTRY                   ADDRESS         REF BY
           =====                   =======         ======
           getKey                  0002A49A        check (test)
                                                   guiExec (display)
               calls direct
               CSTACK = 00000000 ( 00000008 )
    -------------------------------------------------------------------------
ISR_CODE
  Relative segment, address: 5C40 - 5C41 (0x2 bytes), align: 1
  Segment part 14.            Intra module refs:   port2Isr::??INTVEC 84
           ENTRY                   ADDRESS         REF BY
           =====                   =======         ======
           port2Isr                5C40 
               interrupt function
               CSTACK = 00000000 ( 00000004 )
    -------------------------------------------------------------------------
INTVEC
  Common segment, address: FF80 - FFD5 (0x56 bytes), align: 1
  Segment part 5. ROOT.
           ENTRY                   ADDRESS         REF BY
           =====                   =======         ======
           port2Isr::??INTVEC 84   FFD4 

    *************************************************************************

  FILE NAME : E:\工程\小个体\程序\samllSamp\Debug\Obj\lcd.r43
  PROGRAM MODULE, NAME : lcd

  SEGMENTS IN THE MODULE
  ======================
DATA16_AN
  Relative segment, address: 0222 - 0223 (0x2 bytes), align: 0
  Segment part 1. ROOT.       Intra module refs:   init_Lcd
                                                   write_cmd
                                                   write_data
           ENTRY                   ADDRESS         REF BY
           =====                   =======         ======
           _A_PBOUT_L              0222 
           LOCAL                   ADDRESS         
           =====                   =======         
           PBOUT                   0222 
           PBOUT_H                 0223 
           PBOUT_L                 0222 
    -------------------------------------------------------------------------
DATA16_AN
  Relative segment, address: 0224 - 0225 (0x2 bytes), align: 0
  Segment part 2. ROOT.       Intra module refs:   initPumpIo (pump)
                                                   init_Lcd
           ENTRY                   ADDRESS         REF BY
           =====                   =======         ======
           _A_PBDIR_L              0224 
           LOCAL                   ADDRESS         
           =====                   =======         
           PBDIR                   0224 
           PBDIR_H                 0225 
           PBDIR_L                 0224 
    -------------------------------------------------------------------------
DATA16_C
  Relative segment, address: 79DE - 7A1D (0x40 bytes), align: 0
  Segment part 6.             Intra module refs:   clr_point
                                                   clr_rect
                                                   draw_point
                                                   draw_symbol
                                                   fill_rect
           LOCAL                   ADDRESS         
           =====                   =======         
           y_page_tbl              79DE 
    -------------------------------------------------------------------------
DATA16_C
  Relative segment, address: 7A1E - 7A25 (0x8 bytes), align: 0
  Segment part 7.             Intra module refs:   clr_rect
                                                   fill_rect
           LOCAL                   ADDRESS         
           =====                   =======         
           bit_set                 7A1E 
    -------------------------------------------------------------------------
DATA16_C
  Relative segment, address: 7A26 - 7EA5 (0x480 bytes), align: 0
  Segment part 8.             Intra module refs:   putchar
           LOCAL                   ADDRESS         
           =====                   =======         
           asics                   7A26 
    -------------------------------------------------------------------------
DATA16_C
  Relative segment, address: 5C42 - 6D85 (0x1144 bytes), align: 1
  Segment part 10.            Intra module refs:   putchinese
           LOCAL                   ADDRESS         
           =====                   =======         
           chinese                 5C42 
    -------------------------------------------------------------------------
DATA16_C
  Relative segment, address: 7EA6 - 7F25 (0x80 bytes), align: 0
  Segment part 11.            Intra module refs:   draw_button
           LOCAL                   ADDRESS         
           =====                   =======         
           button_mu               7EA6 
    -------------------------------------------------------------------------
DATA16_N
  Relative segment, address: 265C - 2A5B (0x400 bytes), align: 0
  Segment part 12.            Intra module refs:   clr_lcd
                                                   clr_point
                                                   clr_rect
                                                   draw_point
                                                   fill_rect
           LOCAL                   ADDRESS         
           =====                   =======         
           lcd_buf_p               265C 
    -------------------------------------------------------------------------
<CODE> 2 (was CODE)
  Relative segment, address: 0002B152 - 0002B177 (0x26 bytes), align: 1
  Segment part 14.            Intra module refs:   clr_lcd
                                                   clr_rect
                                                   init_Lcd
                                                   send_byte_pos
           ENTRY                   ADDRESS         REF BY
           =====                   =======         ======
           write_cmd               0002B152 
               CSTACK = 00000000 ( 00000004 )
    -------------------------------------------------------------------------
<CODE> 2 (was CODE)
  Relative segment, address: 0002B12C - 0002B151 (0x26 bytes), align: 1
  Segment part 13.            Intra module refs:   clr_lcd
                                                   clr_rect
                                                   send_byte_pos
           ENTRY                   ADDRESS         REF BY
           =====                   =======         ======
           write_data              0002B12C 
               CSTACK = 00000000 ( 00000004 )
    -------------------------------------------------------------------------
<CODE> 2 (was CODE)
  Relative segment, address: 0002A818 - 0002A857 (0x40 bytes), align: 1
  Segment part 16.            Intra module refs:   clr_point
                                                   draw_point
                                                   fill_rect
           ENTRY                   ADDRESS         REF BY
           =====                   =======         ======
           send_byte_pos           0002A818 
               calls direct
               CSTACK = 00000000 ( 00000008 )
    -------------------------------------------------------------------------
<CODE> 2 (was CODE)
  Relative segment, address: 00029B10 - 00029B7B (0x6c bytes), align: 1
  Segment part 41.
           ENTRY                   ADDRESS         REF BY
           =====                   =======         ======
           init_Lcd                00029B10        main (main)
               calls direct
               CSTACK = 00000000 ( 00000004 )
    -------------------------------------------------------------------------
<CODE> 2 (was CODE)
  Relative segment, address: 0002A4E4 - 0002A52D (0x4a bytes), align: 1
  Segment part 40.
           ENTRY                   ADDRESS         REF BY
           =====                   =======         ======
           clr_lcd                 0002A4E4        CwarnStopMenuShow (display)
                                                   MwarnStopMenuShow (display)
                                                   TwarnStopMenuShow (display)
                                                   allSetMenuShow (display)
                                                   calibrateFlowMenuShow (display)
                                                   check (test)
                                                   check_state (test)
                                                   clewMenuShow (display)
                                                   cylCyclesSetMenuShow (display)
                                                   cylDelaySetMenuShow (display)
                                                   cylParaSetMenuShow (display)
                                                   cylSmpTimeSetMenuShow (display)
                                                   cylStartMenuShow (display)
                                                   cylViewMenuShow (display)
                                                   cylViewSetMenuShow (display)
                                                   cylViewStatusMenuShow (display)
                                                   errFlowMenuShow (display)
                                                   errorMenuShow (display)
                                                   flowSetShow (display)
                                                   groupParaSetMenuShow (display)
                                                   groupSetMenuShow (display)
                                                   groupWarnMenuShow (display)
                                                   groupWorkTimeSetMenuShow (display)
                                                   inputNumberMenuShow (display)
                                                   languageSetMenuShow (display)
                                                   manuFlowSetMenuShow (display)
                                                   manuStartMenuShow (display)
                                                   modSetMenuShow (display)
                                                   newGui (display)
                                                   powerOff (test)
                                                   powerTimeSetMenuShow (display)
                                                   smpTimeMenuShow (display)
                                                   smpTimeWarnMenuShow (display)
                                                   sysTimeSetMenuShow (display)
                                                   timePowerOffSetMenuOnDown (display)
                                                   timePowerOffSetMenuOnUp (display)
                                                   timePowerOffSetMenuShow (display)
                                                   timeStartMenuShow (display)
                                                   timeViewMenuShow (display)
                                                   timeViewSetMenuShow (display)
                                                   timeViewStatusMenuShow (display)
                                                   topCylMenuShow (display)
                                                   topManuMenuShow (display)
                                                   topTimeMenuShow (display)
                                                   twoErrMenuShow (display)
               calls direct
               CSTACK = 00000000 ( 00000004 )
    -------------------------------------------------------------------------
<CODE> 2 (was CODE)
  Relative segment, address: 00029E42 - 00029EA3 (0x62 bytes), align: 1
  Segment part 17.            Intra module refs:   draw_symbol
                                                   putchar
           ENTRY                   ADDRESS         REF BY
           =====                   =======         ======
           clr_point               00029E42 
               calls direct
               CSTACK = 00000000 ( 00000010 )
    -------------------------------------------------------------------------
<CODE> 2 (was CODE)
  Relative segment, address: 00029DE0 - 00029E41 (0x62 bytes), align: 1
  Segment part 18.            Intra module refs:   draw_line
                                                   draw_rect
                                                   draw_symbol
                                                   putchar
           ENTRY                   ADDRESS         REF BY
           =====                   =======         ======
           draw_point              00029DE0        cylSmpTimeSetMenuOnOk (display)
                                                   cylSmpTimeSetMenuShow (display)
                                                   draw_dialog (display)
                                                   smpTimeMenuOnOk (display)
                                                   smpTimeMenuShow (display)
               calls direct
               CSTACK = 00000000 ( 00000010 )
    -------------------------------------------------------------------------
<CODE> 2 (was CODE)
  Relative segment, address: 0001F5BE - 0001F805 (0x248 bytes), align: 1
  Segment part 38.
           ENTRY                   ADDRESS         REF BY
           =====                   =======         ======
           draw_line               0001F5BE        CwarnStopMenuShow (display)
                                                   MwarnStopMenuShow (display)
                                                   TwarnStopMenuShow (display)
                                                   allSetMenuShow (display)
                                                   calibrateFlowMenuShow (display)
                                                   cylCyclesSetMenuShow (display)
                                                   cylDelaySetMenuShow (display)
                                                   cylParaSetMenuShow (display)
                                                   cylSmpTimeSetMenuOnOk (display)
                                                   cylSmpTimeSetMenuShow (display)
                                                   cylStartMenuShow (display)
                                                   cylViewMenuShow (display)
                                                   cylViewSetMenuShow (display)
                                                   cylViewStatusMenuShow (display)
                                                   draw_dialog (display)
                                                   errFlowMenuShow (display)
                                                   errorMenuShow (display)
                                                   flowSetShow (display)
                                                   groupParaSetMenuShow (display)
                                                   groupSetMenuShow (display)
                                                   groupWarnMenuShow (display)
                                                   groupWorkTimeSetMenuShow (display)
                                                   languageSetMenuShow (display)
                                                   manuStartMenuShow (display)
                                                   modSetMenuShow (display)
                                                   powerTimeSetMenuShow (display)
                                                   smpTimeMenuOnOk (display)
                                                   smpTimeMenuShow (display)
                                                   smpTimeWarnMenuShow (display)
                                                   sysTimeSetMenuShow (display)
                                                   timePowerOffSetMenuOnDown (display)
                                                   timePowerOffSetMenuOnUp (display)
                                                   timePowerOffSetMenuShow (display)
                                                   timeStartMenuShow (display)
                                                   timeViewMenuShow (display)
                                                   timeViewSetMenuShow (display)
                                                   timeViewStatusMenuShow (display)
                                                   topCylMenuShow (display)
                                                   topManuMenuShow (display)
                                                   topTimeMenuShow (display)
                                                   twoErrMenuShow (display)
               calls direct
               CSTACK = 00000000 ( 00000028 )
    -------------------------------------------------------------------------
<CODE> 2 (was CODE)
  Relative segment, address: 000290A2 - 0002912B (0x8a bytes), align: 1
  Segment part 37.
           ENTRY                   ADDRESS         REF BY
           =====                   =======         ======
           draw_rect               000290A2        CwarnStopMenuShow (display)
                                                   MwarnStopMenuShow (display)
                                                   TwarnStopMenuShow (display)
                                                   allSetMenuShow (display)
                                                   calibrateFlowMenuShow (display)
                                                   clewMenuShow (display)
                                                   cylCyclesSetMenuShow (display)
                                                   cylDelaySetMenuShow (display)
                                                   cylSmpTimeSetMenuShow (display)
                                                   cylStartMenuShow (display)
                                                   cylViewMenuShow (display)
                                                   cylViewSetMenuShow (display)
                                                   cylViewStatusMenuShow (display)
                                                   disply_result (test)
                                                   errFlowMenuShow (display)
                                                   errorMenuShow (display)
                                                   flowSetShow (display)
                                                   groupParaSetMenuOnOk (display)
                                                   groupWarnMenuShow (display)
                                                   groupWorkTimeSetMenuShow (display)
                                                   group_status_set (display)
                                                   inputNumberMenuShow (display)
                                                   manuStartMenuShow (display)
                                                   powerOff (test)
                                                   power_status_show (display)
                                                   smpTimeMenuShow (display)
                                                   smpTimeWarnMenuShow (display)
                                                   timeStartMenuShow (display)
                                                   timeViewMenuShow (display)
                                                   timeViewSetMenuShow (display)
                                                   topCylMenuShow (display)
                                                   topManuMenuShow (display)
                                                   topTimeMenuShow (display)
                                                   twoErrMenuShow (display)
               calls direct
               CSTACK = 00000000 ( 00000010 )
    -------------------------------------------------------------------------
<CODE> 2 (was CODE)
  Relative segment, address: 0002032E - 0002055D (0x230 bytes), align: 1
  Segment part 27.            Intra module refs:   print_time
           ENTRY                   ADDRESS         REF BY
           =====                   =======         ======
           clr_rect                0002032E        allSetMenuOnLeft (display)
                                                   allSetMenuOnRight (display)
                                                   calibrateFlowMenuExec (display)
                                                   calibrateFlowMenuOnDown (display)
                                                   calibrateFlowMenuOnUp (display)
                                                   cylCyclesSetMenuOnLeft (display)
                                                   cylCyclesSetMenuOnRight (display)
                                                   cylDelaySetMenuOnLeft (display)
                                                   cylDelaySetMenuOnRight (display)
                                                   cylParaSetMenuOnDown (display)
                                                   cylParaSetMenuOnUp (display)
                                                   cylParaSetMenuShow (display)
                                                   cylSmpTimeSetMenuOnLeft (display)
                                                   cylSmpTimeSetMenuOnOk (display)
                                                   cylSmpTimeSetMenuOnRight (display)
                                                   cylViewMenuOnDown (display)
                                                   cylViewMenuOnUp (display)
                                                   cylViewStatusMenuExec (display)
                                                   cylsMoveFont (display)
                                                   disply_result (test)
                                                   draw_dialog (display)
                                                   flowSetLeft (display)
                                                   flowSetRight (display)
                                                   flow_show (display)
                                                   groupMoveFont (display)
                                                   groupParaSetMenuOnDown (display)
                                                   groupParaSetMenuOnOk (display)
                                                   groupParaSetMenuOnUp (display)
                                                   groupParaSetMenuShow (display)
                                                   groupSetMenuOnLeft (display)
                                                   groupSetMenuOnRight (display)
                                                   groupWorkTimeSetMenuOnLeft (display)
                                                   groupWorkTimeSetMenuOnRight (display)
                                                   group_status_set (display)
                                                   inputNumberMenuOnLeft (display)
                                                   inputNumberMenuOnRight (display)
                                                   languageSetMenuOnDown (display)
                                                   languageSetMenuOnLeft (display)
                                                   languageSetMenuOnRight (display)
                                                   languageSetMenuOnUp (display)
                                                   manuStartMenuOnLeft (display)
                                                   manuStartMenuOnRight (display)
                                                   modSetMenuOnDown (display)
                                                   modSetMenuOnLeft (display)
                                                   modSetMenuOnRight (display)
                                                   modSetMenuOnUp (display)
                                                   percent_show (display)
                                                   power_status_show (display)
                                                   show_time (display)
                                                   smpTimeMenuOnLeft (display)
                                                   smpTimeMenuOnOk (display)
                                                   smpTimeMenuOnRight (display)
                                                   status_show (display)
                                                   timePowerOffSetMenuOnDown (display)
                                                   timePowerOffSetMenuOnOk (display)
                                                   timePowerOffSetMenuOnUp (display)
                                                   timePowerOffSetMenuShow (display)
                                                   timeViewMenuOnDown (display)
                                                   timeViewMenuOnUp (display)
                                                   timeViewSetMenuOnLeft (display)
                                                   timeViewSetMenuOnRight (display)
                                                   timeViewStatusMenuExec (display)
                                                   timeViewStatusMenuOnDown (display)
                                                   timeViewStatusMenuOnUp (display)
                                                   topManuMenuOnLeft (display)
                                                   topManuMenuOnRight (display)
                                                   used_time_show (display)
               calls direct
               CSTACK = 00000000 ( 00000018 )
    -------------------------------------------------------------------------
<CODE> 2 (was CODE)
  Relative segment, address: 0002249E - 0002265B (0x1be bytes), align: 1
  Segment part 26.            Intra module refs:   print_time
           ENTRY                   ADDRESS         REF BY
           =====                   =======         ======
           fill_rect               0002249E        cylCyclesSetMenuOnLeft (display)
                                                   cylCyclesSetMenuOnRight (display)
                                                   cylCyclesSetMenuShow (display)
                                                   cylDelaySetMenuOnLeft (display)
                                                   cylDelaySetMenuOnRight (display)
                                                   cylDelaySetMenuShow (display)
                                                   cylParaSetMenuOnDown (display)
                                                   cylParaSetMenuOnUp (display)
                                                   cylParaSetMenuShow (display)
                                                   cylSmpTimeSetMenuOnLeft (display)
                                                   cylSmpTimeSetMenuOnRight (display)
                                                   cylSmpTimeSetMenuShow (display)
                                                   cylViewMenuOnDown (display)
                                                   cylViewMenuOnUp (display)
                                                   cylViewMenuShow (display)
                                                   flowSetLeft (display)
                                                   flowSetRight (display)
                                                   flowSetShow (display)
                                                   groupParaSetMenuOnDown (display)
                                                   groupParaSetMenuOnUp (display)
                                                   groupParaSetMenuShow (display)
                                                   groupWorkTimeSetMenuOnLeft (display)
                                                   groupWorkTimeSetMenuOnRight (display)
                                                   inputNumberMenuOnLeft (display)
                                                   inputNumberMenuOnRight (display)
                                                   inputNumberMenuShow (display)
                                                   percent_show (display)
                                                   smpTimeMenuOnLeft (display)
                                                   smpTimeMenuOnRight (display)
                                                   smpTimeMenuShow (display)
                                                   timePowerOffSetMenuOnDown (display)
                                                   timePowerOffSetMenuOnUp (display)
                                                   timePowerOffSetMenuShow (display)
                                                   timeViewMenuOnDown (display)
                                                   timeViewMenuOnUp (display)
                                                   timeViewMenuShow (display)
               calls direct
               CSTACK = 00000000 ( 0000001A )
    -------------------------------------------------------------------------
<CODE> 2 (was CODE)
  Relative segment, address: 0001DCB0 - 0001DF45 (0x296 bytes), align: 1
  Segment part 19.            Intra module refs:   draw_button
                                                   putchinese
           ENTRY                   ADDRESS         REF BY
           =====                   =======         ======
           draw_symbol             0001DCB0        allSetMenuOnLeft (display)
                                                   allSetMenuOnRight (display)
                                                   allSetMenuShow (display)
                                                   batShow (display)
                                                   calibrateFlowMenuOnLeft (display)
                                                   calibrateFlowMenuOnRight (display)
                                                   calibrateFlowMenuShow (display)
                                                   check (test)
                                                   cylCyclesSetMenuShow (display)
                                                   cylDelaySetMenuShow (display)
                                                   cylParaSetMenuShow (display)
                                                   cylSmpTimeSetMenuOnOk (display)
                                                   cylSmpTimeSetMenuShow (display)
                                                   cylStartMenuShow (display)
                                                   flowSetShow (display)
                                                   groupParaSetMenuOnOk (display)
                                                   groupParaSetMenuShow (display)
                                                   groupSetMenuShow (display)
                                                   group_status_set (display)
                                                   languageSetMenuShow (display)
                                                   manuStartMenuShow (display)
                                                   modSetMenuShow (display)
                                                   powerOff (test)
                                                   powerTimeSetMenuShow (display)
                                                   power_status_show (display)
                                                   smpTimeMenuOnOk (display)
                                                   smpTimeMenuShow (display)
                                                   status_show (display)
                                                   sysTimeSetMenuShow (display)
                                                   timePowerOffSetMenuOnDown (display)
                                                   timePowerOffSetMenuOnOk (display)
                                                   timePowerOffSetMenuOnUp (display)
                                                   timePowerOffSetMenuShow (display)
                                                   timeStartMenuShow (display)
                                                   timeViewSetMenuShow (display)
                                                   topCylMenuShow (display)
                                                   topManuMenuOnLeft (display)
                                                   topManuMenuOnRight (display)
                                                   topManuMenuShow (display)
                                                   topTimeMenuShow (display)
               calls direct
               CSTACK = 00000000 ( 0000001C )
    -------------------------------------------------------------------------
<CODE> 2 (was CODE)
  Relative segment, address: 00025304 - 0002544D (0x14a bytes), align: 1
  Segment part 23.            Intra module refs:   print_float
                                                   print_int
                                                   print_str
                                                   print_time
           ENTRY                   ADDRESS         REF BY
           =====                   =======         ======
           putchar                 00025304        CwarnStopMenuShow (display)
                                                   MwarnStopMenuShow (display)
                                                   TwarnStopMenuShow (display)
                                                   clewMenuShow (display)
                                                   cylCyclesSetMenuOnDown (display)
                                                   cylCyclesSetMenuOnLeft (display)
                                                   cylCyclesSetMenuOnRight (display)
                                                   cylCyclesSetMenuOnUp (display)
                                                   cylCyclesSetMenuShow (display)
                                                   cylDelaySetMenuOnDown (display)
                                                   cylDelaySetMenuOnLeft (display)
                                                   cylDelaySetMenuOnRight (display)
                                                   cylDelaySetMenuOnUp (display)
                                                   cylDelaySetMenuShow (display)
                                                   cylSmpTimeSetMenuOnDown (display)
                                                   cylSmpTimeSetMenuOnLeft (display)
                                                   cylSmpTimeSetMenuOnOk (display)
                                                   cylSmpTimeSetMenuOnRight (display)
                                                   cylSmpTimeSetMenuOnUp (display)
                                                   cylSmpTimeSetMenuShow (display)
                                                   cylStartMenuShow (display)
                                                   cylViewSetMenuShow (display)
                                                   cylViewStatusMenuExec (display)
                                                   cylViewStatusMenuShow (display)
                                                   disply_result (test)
                                                   errFlowMenuShow (display)
                                                   errorMenuShow (display)
                                                   flowSetDown (display)
                                                   flowSetLeft (display)
                                                   flowSetRight (display)
                                                   flowSetShow (display)
                                                   flowSetUp (display)
                                                   groupWarnMenuShow (display)
                                                   groupWorkTimeSetMenuOnDown (display)
                                                   groupWorkTimeSetMenuOnLeft (display)
                                                   groupWorkTimeSetMenuOnRight (display)
                                                   groupWorkTimeSetMenuOnUp (display)
                                                   groupWorkTimeSetMenuShow (display)
                                                   inputNumberMenuShow (display)
                                                   manuStartMenuShow (display)
                                                   percent_show (display)
                                                   show_time (display)
                                                   smpTimeMenuOnOk (display)
                                                   smpTimeMenuShow (display)
                                                   smpTimeWarnMenuShow (display)
                                                   timeViewSetMenuShow (display)
                                                   timeViewStatusMenuExec (display)
                                                   timeViewStatusMenuOnDown (display)
                                                   timeViewStatusMenuOnUp (display)
                                                   timeViewStatusMenuShow (display)
                                                   topCylMenuShow (display)
                                                   topManuMenuShow (display)
                                                   twoErrMenuShow (display)
                                                   used_time_show (display)
                                                   used_volume_show (display)
               calls direct
               CSTACK = 00000000 ( 00000016 )
    -------------------------------------------------------------------------
<CODE> 2 (was CODE)
  Relative segment, address: 000297FA - 0002986D (0x74 bytes), align: 1
  Segment part 20.            Intra module refs:   print_ch_str
           ENTRY                   ADDRESS         REF BY
           =====                   =======         ======
           putchinese              000297FA 
               calls direct
               CSTACK = 00000000 ( 00000014 )
    -------------------------------------------------------------------------
<CODE> 2 (was CODE)
  Relative segment, address: 0002B2C0 - 0002B2D9 (0x1a bytes), align: 1
  Segment part 21.            Intra module refs:   print_ch_str
           ENTRY                   ADDRESS         REF BY
           =====                   =======         ======
           chinese_to_Uint16       0002B2C0 
               CSTACK = 00000000 ( 00000004 )
    -------------------------------------------------------------------------
<CODE> 2 (was CODE)
  Relative segment, address: 0002B0B0 - 0002B0DD (0x2e bytes), align: 1
  Segment part 24.            Intra module refs:   draw_button
           ENTRY                   ADDRESS         REF BY
           =====                   =======         ======
           print_str               0002B0B0        CwarnStopMenuShow (display)
                                                   MwarnStopMenuShow (display)
                                                   TwarnStopMenuShow (display)
                                                   allSetMenuOnLeft (display)
                                                   allSetMenuOnRight (display)
                                                   allSetMenuShow (display)
                                                   calibrateFlowMenuShow (display)
                                                   check (test)
                                                   clewMenuShow (display)
                                                   cylCyclesSetMenuShow (display)
                                                   cylDelaySetMenuShow (display)
                                                   cylParaSetMenuOnDown (display)
                                                   cylParaSetMenuOnUp (display)
                                                   cylParaSetMenuShow (display)
                                                   cylSmpTimeSetMenuOnLeft (display)
                                                   cylSmpTimeSetMenuOnOk (display)
                                                   cylSmpTimeSetMenuOnRight (display)
                                                   cylSmpTimeSetMenuShow (display)
                                                   cylStartMenuShow (display)
                                                   cylViewMenuOnDown (display)
                                                   cylViewMenuOnUp (display)
                                                   cylViewMenuShow (display)
                                                   cylViewSetMenuShow (display)
                                                   cylViewStatusMenuExec (display)
                                                   cylViewStatusMenuShow (display)
                                                   cylsMoveFont (display)
                                                   disply_result (test)
                                                   errFlowMenuShow (display)
                                                   errorMenuShow (display)
                                                   flowSetShow (display)
                                                   groupMoveFont (display)
                                                   groupParaSetMenuOnDown (display)
                                                   groupParaSetMenuOnUp (display)
                                                   groupParaSetMenuShow (display)
                                                   groupSetMenuOnDown (display)
                                                   groupSetMenuOnLeft (display)
                                                   groupSetMenuOnRight (display)
                                                   groupSetMenuOnUp (display)
                                                   groupSetMenuShow (display)
                                                   groupWarnMenuShow (display)
                                                   groupWorkTimeSetMenuOnDown (display)
                                                   groupWorkTimeSetMenuOnLeft (display)
                                                   groupWorkTimeSetMenuOnRight (display)
                                                   groupWorkTimeSetMenuOnUp (display)
                                                   groupWorkTimeSetMenuShow (display)
                                                   inputNumberMenuShow (display)
                                                   languageSetMenuOnDown (display)
                                                   languageSetMenuOnLeft (display)
                                                   languageSetMenuOnRight (display)
                                                   languageSetMenuOnUp (display)
                                                   languageSetMenuShow (display)
                                                   manuStartMenuShow (display)
                                                   modSetMenuOnDown (display)
                                                   modSetMenuOnLeft (display)
                                                   modSetMenuOnRight (display)
                                                   modSetMenuOnUp (display)
                                                   modSetMenuShow (display)
                                                   percent_show (display)
                                                   powerTimeSetMenuShow (display)
                                                   smpTimeMenuOnLeft (display)
                                                   smpTimeMenuOnOk (display)
                                                   smpTimeMenuOnRight (display)
                                                   smpTimeMenuShow (display)
                                                   smpTimeWarnMenuShow (display)
                                                   sysTimeSetMenuShow (display)
                                                   timePowerOffSetMenuOnDown (display)
                                                   timePowerOffSetMenuOnUp (display)
                                                   timePowerOffSetMenuShow (display)
                                                   timeStartMenuShow (display)
                                                   timeViewMenuOnDown (display)
                                                   timeViewMenuOnUp (display)
                                                   timeViewMenuShow (display)
                                                   timeViewSetMenuOnLeft (display)
                                                   timeViewSetMenuOnRight (display)
                                                   timeViewSetMenuShow (display)
                                                   timeViewStatusMenuOnDown (display)
                                                   timeViewStatusMenuOnUp (display)
                                                   timeViewStatusMenuShow (display)
                                                   topCylMenuShow (display)
                                                   topManuMenuOnLeft (display)
                                                   topManuMenuOnRight (display)
                                                   topManuMenuShow (display)
                                                   topTimeMenuShow (display)
                                                   twoErrMenuShow (display)
               calls direct
               CSTACK = 00000000 ( 00000010 )
    -------------------------------------------------------------------------
<CODE> 2 (was CODE)
  Relative segment, address: 0002A896 - 0002A8D1 (0x3c bytes), align: 1
  Segment part 22.            Intra module refs:   draw_button
           ENTRY                   ADDRESS         REF BY
           =====                   =======         ======
           print_ch_str            0002A896        CwarnStopMenuShow (display)
                                                   MwarnStopMenuShow (display)
                                                   TwarnStopMenuShow (display)
                                                   allSetMenuOnLeft (display)
                                                   allSetMenuOnRight (display)
                                                   allSetMenuShow (display)
                                                   calibrateFlowMenuShow (display)
                                                   clewMenuShow (display)
                                                   cylCyclesSetMenuShow (display)
                                                   cylDelaySetMenuShow (display)
                                                   cylParaSetMenuOnDown (display)
                                                   cylParaSetMenuOnUp (display)
                                                   cylParaSetMenuShow (display)
                                                   cylSmpTimeSetMenuOnLeft (display)
                                                   cylSmpTimeSetMenuOnRight (display)
                                                   cylSmpTimeSetMenuShow (display)
                                                   cylStartMenuShow (display)
                                                   cylViewMenuOnDown (display)
                                                   cylViewMenuOnUp (display)
                                                   cylViewMenuShow (display)
                                                   cylViewSetMenuShow (display)
                                                   cylViewStatusMenuExec (display)
                                                   cylViewStatusMenuShow (display)
                                                   cylsMoveFont (display)
                                                   disply_result (test)
                                                   errFlowMenuShow (display)
                                                   errorMenuShow (display)
                                                   flowSetShow (display)
                                                   groupMoveFont (display)
                                                   groupParaSetMenuOnDown (display)
                                                   groupParaSetMenuOnUp (display)
                                                   groupParaSetMenuShow (display)
                                                   groupSetMenuOnDown (display)
                                                   groupSetMenuOnLeft (display)
                                                   groupSetMenuOnRight (display)
                                                   groupSetMenuOnUp (display)
                                                   groupSetMenuShow (display)
                                                   groupWarnMenuShow (display)
                                                   groupWorkTimeSetMenuOnDown (display)
                                                   groupWorkTimeSetMenuOnLeft (display)
                                                   groupWorkTimeSetMenuOnRight (display)
                                                   groupWorkTimeSetMenuOnUp (display)
                                                   groupWorkTimeSetMenuShow (display)
                                                   inputNumberMenuShow (display)
                                                   languageSetMenuOnDown (display)
                                                   languageSetMenuOnLeft (display)
                                                   languageSetMenuOnRight (display)
                                                   languageSetMenuOnUp (display)
                                                   languageSetMenuShow (display)
                                                   manuStartMenuShow (display)
                                                   modSetMenuOnDown (display)
                                                   modSetMenuOnLeft (display)
                                                   modSetMenuOnRight (display)
                                                   modSetMenuOnUp (display)
                                                   modSetMenuShow (display)
                                                   powerTimeSetMenuShow (display)
                                                   smpTimeMenuOnLeft (display)
                                                   smpTimeMenuOnRight (display)
                                                   smpTimeMenuShow (display)
                                                   smpTimeWarnMenuShow (display)
                                                   sysTimeSetMenuShow (display)
                                                   timePowerOffSetMenuOnDown (display)
                                                   timePowerOffSetMenuOnUp (display)
                                                   timePowerOffSetMenuShow (display)
                                                   timeStartMenuShow (display)
                                                   timeViewMenuOnDown (display)
                                                   timeViewMenuOnUp (display)
                                                   timeViewMenuShow (display)
                                                   timeViewSetMenuOnLeft (display)
                                                   timeViewSetMenuOnRight (display)
                                                   timeViewSetMenuShow (display)
                                                   timeViewStatusMenuOnDown (display)
                                                   timeViewStatusMenuOnUp (display)
                                                   timeViewStatusMenuShow (display)
                                                   topCylMenuShow (display)
                                                   topManuMenuShow (display)
                                                   topTimeMenuShow (display)
                                                   twoErrMenuShow (display)
               calls direct
               CSTACK = 00000000 ( 00000014 )
    -------------------------------------------------------------------------
<CODE> 2 (was CODE)
  Relative segment, address: 0002A754 - 0002A795 (0x42 bytes), align: 1
  Segment part 35.
           ENTRY                   ADDRESS         REF BY
           =====                   =======         ======
           print_int               0002A754        CwarnStopMenuShow (display)
                                                   TwarnStopMenuShow (display)
                                                   calibrateFlowMenuOnDown (display)
                                                   calibrateFlowMenuOnUp (display)
                                                   calibrateFlowMenuShow (display)
                                                   cylStartMenuShow (display)
                                                   cylViewSetMenuShow (display)
                                                   cylViewStatusMenuExec (display)
                                                   cylViewStatusMenuShow (display)
                                                   cylsMoveFont (display)
                                                   disply_result (test)
                                                   errFlowMenuShow (display)
                                                   flow_show (display)
                                                   groupMoveFont (display)
                                                   groupParaSetMenuShow (display)
                                                   groupSetMenuOnDown (display)
                                                   groupSetMenuOnLeft (display)
                                                   groupSetMenuOnRight (display)
                                                   groupSetMenuOnUp (display)
                                                   groupSetMenuShow (display)
                                                   groupWarnMenuShow (display)
                                                   inputNumberMenuOnDown (display)
                                                   inputNumberMenuOnLeft (display)
                                                   inputNumberMenuOnRight (display)
                                                   inputNumberMenuOnUp (display)
                                                   inputNumberMenuShow (display)
                                                   manuStartMenuOnLeft (display)
                                                   manuStartMenuOnRight (display)
                                                   manuStartMenuShow (display)
                                                   show_time (display)
                                                   smpTimeMenuOnDown (display)
                                                   smpTimeMenuOnLeft (display)
                                                   smpTimeMenuOnOk (display)
                                                   smpTimeMenuOnRight (display)
                                                   smpTimeMenuOnUp (display)
                                                   smpTimeMenuShow (display)
                                                   timeStartMenuShow (display)
                                                   timeViewSetMenuOnLeft (display)
                                                   timeViewSetMenuOnRight (display)
                                                   timeViewSetMenuShow (display)
                                                   timeViewStatusMenuExec (display)
                                                   timeViewStatusMenuOnDown (display)
                                                   timeViewStatusMenuOnUp (display)
                                                   timeViewStatusMenuShow (display)
                                                   topCylMenuShow (display)
                                                   topManuMenuOnLeft (display)
                                                   topManuMenuOnRight (display)
                                                   topManuMenuShow (display)
                                                   topTimeMenuShow (display)
                                                   used_time_show (display)
               calls direct
               CSTACK = 00000000 ( 00000034 )
    -------------------------------------------------------------------------
<CODE> 2 (was CODE)
  Relative segment, address: 0002A52E - 0002A575 (0x48 bytes), align: 1
  Segment part 33.
           ENTRY                   ADDRESS         REF BY
           =====                   =======         ======
           print_float             0002A52E        cylViewSetMenuShow (display)
                                                   cylViewStatusMenuExec (display)
                                                   cylViewStatusMenuShow (display)
                                                   timeViewStatusMenuExec (display)
                                                   timeViewStatusMenuOnDown (display)
                                                   timeViewStatusMenuOnUp (display)
                                                   timeViewStatusMenuShow (display)
                                                   used_volume_show (display)
               calls direct
               CSTACK = 00000000 ( 00000030 )
    -------------------------------------------------------------------------
<CODE> 2 (was CODE)
  Relative segment, address: 00028B04 - 00028B97 (0x94 bytes), align: 1
  Segment part 30.            Intra module refs:   print_int
           ENTRY                   ADDRESS         REF BY
           =====                   =======         ======
           int_to_char             00028B04 
               CSTACK = 00000000 ( 00000030 )
    -------------------------------------------------------------------------
<CODE> 2 (was CODE)
  Relative segment, address: 00022D0A - 00022EA5 (0x19c bytes), align: 1
  Segment part 29.            Intra module refs:   print_float
           ENTRY                   ADDRESS         REF BY
           =====                   =======         ======
           ftoa                    00022D0A 
               calls direct
               CSTACK = 00000000 ( 00000014 )
    -------------------------------------------------------------------------
<CODE> 2 (was CODE)
  Relative segment, address: 000209BA - 00020BDD (0x224 bytes), align: 1
  Segment part 28.
           ENTRY                   ADDRESS         REF BY
           =====                   =======         ======
           print_time              000209BA        groupWarnMenuShow (display)
                                                   groupWorkTimeSetMenuOnDown (display)
                                                   groupWorkTimeSetMenuOnLeft (display)
                                                   groupWorkTimeSetMenuOnRight (display)
                                                   groupWorkTimeSetMenuOnUp (display)
                                                   groupWorkTimeSetMenuShow (display)
                                                   powerTimeSetMenuOnDown (display)
                                                   powerTimeSetMenuOnLeft (display)
                                                   powerTimeSetMenuOnRight (display)
                                                   powerTimeSetMenuOnUp (display)
                                                   powerTimeSetMenuShow (display)
                                                   sysTimeSetMenuOnDown (display)
                                                   sysTimeSetMenuOnLeft (display)
                                                   sysTimeSetMenuOnRight (display)
                                                   sysTimeSetMenuOnUp (display)
                                                   sysTimeSetMenuShow (display)
                                                   timeViewSetMenuOnLeft (display)
                                                   timeViewSetMenuOnRight (display)
                                                   timeViewSetMenuShow (display)
               calls direct
               CSTACK = 00000000 ( 00000010 )
    -------------------------------------------------------------------------
<CODE> 2 (was CODE)
  Relative segment, address: 00026864 - 0002696F (0x10c bytes), align: 1
  Segment part 25.
           ENTRY                   ADDRESS         REF BY
           =====                   =======         ======
           draw_button             00026864        CwarnStopMenuOnLeft (display)
                                                   CwarnStopMenuOnRight (display)
                                                   CwarnStopMenuShow (display)
                                                   MwarnStopMenuOnLeft (display)
                                                   MwarnStopMenuOnRight (display)
                                                   MwarnStopMenuShow (display)
                                                   TwarnStopMenuOnLeft (display)
                                                   TwarnStopMenuOnRight (display)
                                                   TwarnStopMenuShow (display)
                                                   clewMenuOnLeft (display)
                                                   clewMenuOnRight (display)
                                                   clewMenuShow (display)
                                                   cylCyclesSetMenuOnLeft (display)
                                                   cylCyclesSetMenuOnRight (display)
                                                   cylCyclesSetMenuShow (display)
                                                   cylDelaySetMenuOnLeft (display)
                                                   cylDelaySetMenuOnRight (display)
                                                   cylDelaySetMenuShow (display)
                                                   cylSmpTimeSetMenuOnLeft (display)
                                                   cylSmpTimeSetMenuOnRight (display)
                                                   cylSmpTimeSetMenuShow (display)
                                                   cylStartMenuOnDown (display)
                                                   cylStartMenuOnUp (display)
                                                   cylStartMenuShow (display)
                                                   cylViewSetMenuShow (display)
                                                   cylViewStatusMenuShow (display)
                                                   errFlowMenuShow (display)
                                                   errorMenuLeft (display)
                                                   errorMenuShow (display)
                                                   flowSetLeft (display)
                                                   flowSetRight (display)
                                                   flowSetShow (display)
                                                   groupSetMenuOnDown (display)
                                                   groupSetMenuOnLeft (display)
                                                   groupSetMenuOnRight (display)
                                                   groupSetMenuOnUp (display)
                                                   groupSetMenuShow (display)
                                                   groupWarnMenuShow (display)
                                                   groupWorkTimeSetMenuOnDown (display)
                                                   groupWorkTimeSetMenuOnLeft (display)
                                                   groupWorkTimeSetMenuOnRight (display)
                                                   groupWorkTimeSetMenuOnUp (display)
                                                   groupWorkTimeSetMenuShow (display)
                                                   inputNumberMenuOnLeft (display)
                                                   inputNumberMenuOnRight (display)
                                                   inputNumberMenuShow (display)
                                                   languageSetMenuOnDown (display)
                                                   languageSetMenuOnLeft (display)
                                                   languageSetMenuOnRight (display)
                                                   languageSetMenuOnUp (display)
                                                   languageSetMenuShow (display)
                                                   manuStartMenuOnDown (display)
                                                   manuStartMenuOnUp (display)
                                                   manuStartMenuShow (display)
                                                   modSetMenuOnDown (display)
                                                   modSetMenuOnLeft (display)
                                                   modSetMenuOnRight (display)
                                                   modSetMenuOnUp (display)
                                                   modSetMenuShow (display)
                                                   powerTimeSetMenuOnLeft (display)
                                                   powerTimeSetMenuOnRight (display)
                                                   powerTimeSetMenuShow (display)
                                                   smpTimeMenuOnLeft (display)
                                                   smpTimeMenuOnRight (display)
                                                   smpTimeMenuShow (display)
                                                   smpTimeWarnMenuShow (display)
                                                   sysTimeSetMenuOnLeft (display)
                                                   sysTimeSetMenuOnRight (display)
                                                   sysTimeSetMenuShow (display)
                                                   timeStartMenuOnDown (display)
                                                   timeStartMenuOnUp (display)
                                                   timeStartMenuShow (display)
                                                   timeViewSetMenuShow (display)
                                                   timeViewStatusMenuOnDown (display)
                                                   timeViewStatusMenuOnUp (display)
                                                   timeViewStatusMenuShow (display)
                                                   topCylMenuOnDown (display)
                                                   topCylMenuOnUp (display)
                                                   topCylMenuShow (display)
                                                   topManuMenuOnDown (display)
                                                   topManuMenuOnUp (display)
                                                   topManuMenuShow (display)
                                                   topTimeMenuOnDown (display)
                                                   topTimeMenuOnUp (display)
                                                   topTimeMenuShow (display)
                                                   twoErrMenuShow (display)
               calls direct
               CSTACK = 00000000 ( 00000018 )

    *************************************************************************

  FILE NAME : E:\工程\小个体\程序\samllSamp\Debug\Obj\main.r43
  PROGRAM MODULE, NAME : main

  SEGMENTS IN THE MODULE
  ======================
DATA16_AN
  Relative segment, address: 0166 - 0167 (0x2 bytes), align: 0
  Segment part 2. ROOT.       Intra module refs:   main
           ENTRY                   ADDRESS         REF BY
           =====                   =======         ======
           _A_UCSCTL3_L            0166 
           LOCAL                   ADDRESS         
           =====                   =======         
           UCSCTL3                 0166 
           UCSCTL3_H               0167 
           UCSCTL3_L               0166 
    -------------------------------------------------------------------------
DATA16_AN
  Relative segment, address: 0168 - 0169 (0x2 bytes), align: 0
  Segment part 3. ROOT.       Intra module refs:   main
           ENTRY                   ADDRESS         REF BY
           =====                   =======         ======
           _A_UCSCTL4_L            0168 
           LOCAL                   ADDRESS         
           =====                   =======         
           UCSCTL4                 0168 
           UCSCTL4_H               0169 
           UCSCTL4_L               0168 
    -------------------------------------------------------------------------
DATA16_AN
  Relative segment, address: 015C - 015D (0x2 bytes), align: 0
  Segment part 4. ROOT.       Intra module refs:   check (test)
                                                   guiTask
                                                   main
                                                   powerOff (test)
           ENTRY                   ADDRESS         REF BY
           =====                   =======         ======
           _A_WDTCTL_L             015C 
           LOCAL                   ADDRESS         
           =====                   =======         
           WDTCTL                  015C 
           WDTCTL_H                015D 
           WDTCTL_L                015C 
    -------------------------------------------------------------------------
<CODE> 2 (was CODE)
  Relative segment, address: 00028182 - 0002822D (0xac bytes), align: 1
  Segment part 7.
           ENTRY                   ADDRESS         REF BY
           =====                   =======         ======
           main                    00028182        Segment part 19 (?cstart)
               calls direct
               CSTACK = 00000000 ( 0000000E )
    -------------------------------------------------------------------------
<CODE> 2 (was CODE)
  Relative segment, address: 0002B082 - 0002B0AF (0x2e bytes), align: 1
  Segment part 6.             Intra module refs:   main
           ENTRY                   ADDRESS         REF BY
           =====                   =======         ======
           guiTask                 0002B082 
               calls direct and indirect
               CSTACK = 00000000 ( 00000006 )

    *************************************************************************

  FILE NAME : E:\工程\小个体\程序\samllSamp\Debug\Obj\menu.r43
  PROGRAM MODULE, NAME : menu

  SEGMENTS IN THE MODULE
  ======================
DATA16_Z
  Relative segment, address: 1E3E - 1F05 (0xc8 bytes), align: 1
  Segment part 2.             Intra module refs:   newMenu
           LOCAL                   ADDRESS         
           =====                   =======         
           menuBuf                 1E3E 
    -------------------------------------------------------------------------
DATA16_Z
  Relative segment, address: 1F06 - 1F07 (0x2 bytes), align: 1
  Segment part 3.             Intra module refs:   newMenu
           LOCAL                   ADDRESS         
           =====                   =======         
           menuNum                 1F06 
    -------------------------------------------------------------------------
<CODE> 2 (was CODE)
  Relative segment, address: 0002B106 - 0002B12B (0x26 bytes), align: 1
  Segment part 18.
           ENTRY                   ADDRESS         REF BY
           =====                   =======         ======
           newMenu                 0002B106        newWindow (display)
               calls direct
               CSTACK = 00000000 ( 00000006 )
    -------------------------------------------------------------------------
<CODE> 2 (was CODE)
  Relative segment, address: 00028A6E - 00028B03 (0x96 bytes), align: 1
  Segment part 16.            Intra module refs:   newMenu
           LOCAL                   ADDRESS         
           =====                   =======         
           initMenu                00028A6E 
               CSTACK = 00000000 ( 00000004 )
    -------------------------------------------------------------------------
<CODE> 2 (was CODE)
  Relative segment, address: 0002B3C0 - 0002B3D5 (0x16 bytes), align: 1
  Segment part 15.
           ENTRY                   ADDRESS         REF BY
           =====                   =======         ======
           connectUpKey            0002B3C0        newWindow (display)
               CSTACK = 00000000 ( 00000004 )
    -------------------------------------------------------------------------
<CODE> 2 (was CODE)
  Relative segment, address: 0002B368 - 0002B37D (0x16 bytes), align: 1
  Segment part 14.
           ENTRY                   ADDRESS         REF BY
           =====                   =======         ======
           connectDownKey          0002B368        newWindow (display)
               CSTACK = 00000000 ( 00000004 )
    -------------------------------------------------------------------------
<CODE> 2 (was CODE)
  Relative segment, address: 0002B352 - 0002B367 (0x16 bytes), align: 1
  Segment part 13.
           ENTRY                   ADDRESS         REF BY
           =====                   =======         ======
           connectLeftKey          0002B352        newWindow (display)
               CSTACK = 00000000 ( 00000004 )
    -------------------------------------------------------------------------
<CODE> 2 (was CODE)
  Relative segment, address: 0002B33C - 0002B351 (0x16 bytes), align: 1
  Segment part 12.
           ENTRY                   ADDRESS         REF BY
           =====                   =======         ======
           connectRightKey         0002B33C        newWindow (display)
               CSTACK = 00000000 ( 00000004 )
    -------------------------------------------------------------------------
<CODE> 2 (was CODE)
  Relative segment, address: 0002B3AA - 0002B3BF (0x16 bytes), align: 1
  Segment part 11.
           ENTRY                   ADDRESS         REF BY
           =====                   =======         ======
           connectOkKey            0002B3AA        newWindow (display)
               CSTACK = 00000000 ( 00000004 )
    -------------------------------------------------------------------------
<CODE> 2 (was CODE)
  Relative segment, address: 0002B394 - 0002B3A9 (0x16 bytes), align: 1
  Segment part 10.
           ENTRY                   ADDRESS         REF BY
           =====                   =======         ======
           connectEscKey           0002B394        newWindow (display)
               CSTACK = 00000000 ( 00000004 )
    -------------------------------------------------------------------------
<CODE> 2 (was CODE)
  Relative segment, address: 0002B326 - 0002B33B (0x16 bytes), align: 1
  Segment part 8.
           ENTRY                   ADDRESS         REF BY
           =====                   =======         ======
           connectShowfun          0002B326        newWindow (display)
               CSTACK = 00000000 ( 00000004 )
    -------------------------------------------------------------------------
<CODE> 2 (was CODE)
  Relative segment, address: 0002B37E - 0002B393 (0x16 bytes), align: 1
  Segment part 7.
           ENTRY                   ADDRESS         REF BY
           =====                   =======         ======
           connectExec             0002B37E        newWindow (display)
               CSTACK = 00000000 ( 00000004 )
    -------------------------------------------------------------------------
<CODE> 2 (was CODE)
  Relative segment, address: 0002A7D8 - 0002A817 (0x40 bytes), align: 1
  Segment part 6.
           ENTRY                   ADDRESS         REF BY
           =====                   =======         ======
           connectMenu             0002A7D8        newWindow (display)
               CSTACK = 00000000 ( 00000004 )
    -------------------------------------------------------------------------
<CODE> 2 (was CODE)
  Relative segment, address: 0002A226 - 0002A279 (0x54 bytes), align: 1
  Segment part 5.
           ENTRY                   ADDRESS         REF BY
           =====                   =======         ======
           addSubMenu              0002A226        newWindow (display)
               CSTACK = 00000000 ( 00000004 )
    -------------------------------------------------------------------------
<CODE> 2 (was CODE)
  Relative segment, address: 0002B686 - 0002B687 (0x2 bytes), align: 1
  Segment part 4.             Intra module refs:   initMenu
           LOCAL                   ADDRESS         
           =====                   =======         
           defaultKeyfun           0002B686 
               CSTACK = 00000000 ( 00000004 )

    *************************************************************************

  FILE NAME : E:\工程\小个体\程序\samllSamp\Debug\Obj\port.r43
  PROGRAM MODULE, NAME : port

  SEGMENTS IN THE MODULE
  ======================
<CODE> 2 (was CODE)
  Relative segment, address: 00015A3A - 00015E95 (0x45c bytes), align: 1
  Segment part 0. ROOT.
           ENTRY                   ADDRESS         REF BY
           =====                   =======         ======
           osStartSmallPort        00015A3A        startSys (kernel)
           osStartMediumPort       00015A76 
           osStartLargePort        00015AB2 
           swCtxSmallPort          00015AEE        sSleep (semaphore)
                                                   sWakeUp (semaphore)
                                                   sleepMs (task)
                                                   sleep_delay (task)
                                                   wakeUp (task)
           swCtxMediumPort         00015B7A 
           swCtxLargePort          00015C06 
           intIsrSmallPort         00015C92        runIntIsr (kernel)
           intIsrMediumPort        00015D42 
           intIsrLargePort         00015DF2 
           LOCAL                   ADDRESS         
           =====                   =======         
           RESTORE_SMALL           00015D06 
           RESTORE_MEDIUM          00015DB6 
           RESTORE_LARGE           00015E5A 

    *************************************************************************

  FILE NAME : E:\工程\小个体\程序\samllSamp\Debug\Obj\pump.r43
  PROGRAM MODULE, NAME : pump

  SEGMENTS IN THE MODULE
  ======================
DATA16_AN
  Relative segment, address: 022A - 022B (0x2 bytes), align: 0
  Segment part 2. ROOT.       Intra module refs:   initPumpIo
           ENTRY                   ADDRESS         REF BY
           =====                   =======         ======
           _A_PBSEL_L              022A 
           LOCAL                   ADDRESS         
           =====                   =======         
           PBSEL                   022A 
           PBSEL_H                 022B 
           PBSEL_L                 022A 
    -------------------------------------------------------------------------
DATA16_AN
  Relative segment, address: 03C0 - 03C1 (0x2 bytes), align: 0
  Segment part 5. ROOT.       Intra module refs:   initTb0
           ENTRY                   ADDRESS         REF BY
           =====                   =======         ======
           _A_TB0CTL_L             03C0 
           LOCAL                   ADDRESS         
           =====                   =======         
           TB0CTL                  03C0 
           TB0CTL_H                03C1 
           TB0CTL_L                03C0 
    -------------------------------------------------------------------------
DATA16_AN
  Relative segment, address: 03C4 - 03C5 (0x2 bytes), align: 0
  Segment part 6. ROOT.       Intra module refs:   initTb0
                                                   startPump
                                                   stopPump
           ENTRY                   ADDRESS         REF BY
           =====                   =======         ======
           _A_TB0CCTL1_L           03C4 
           LOCAL                   ADDRESS         
           =====                   =======         
           TB0CCTL1                03C4 
           TB0CCTL1_H              03C5 
           TB0CCTL1_L              03C4 
    -------------------------------------------------------------------------
DATA16_AN
  Relative segment, address: 03C6 - 03C7 (0x2 bytes), align: 0
  Segment part 7. ROOT.       Intra module refs:   initTb0
           ENTRY                   ADDRESS         REF BY
           =====                   =======         ======
           _A_TB0CCTL2_L           03C6 
           LOCAL                   ADDRESS         
           =====                   =======         
           TB0CCTL2                03C6 
           TB0CCTL2_H              03C7 
           TB0CCTL2_L              03C6 
    -------------------------------------------------------------------------
DATA16_AN
  Relative segment, address: 03D2 - 03D3 (0x2 bytes), align: 0
  Segment part 8. ROOT.       Intra module refs:   initTb0
           ENTRY                   ADDRESS         REF BY
           =====                   =======         ======
           _A_TB0CCR0_L            03D2 
           LOCAL                   ADDRESS         
           =====                   =======         
           TB0CCR0                 03D2 
           TB0CCR0_H               03D3 
           TB0CCR0_L               03D2 
    -------------------------------------------------------------------------
DATA16_AN
  Relative segment, address: 03D4 - 03D5 (0x2 bytes), align: 0
  Segment part 9. ROOT.       Intra module refs:   initTb0
                                                   pumpLoop
                                                   startPump
                                                   stopPump
           ENTRY                   ADDRESS         REF BY
           =====                   =======         ======
           _A_TB0CCR1_L            03D4 
           LOCAL                   ADDRESS         
           =====                   =======         
           TB0CCR1                 03D4 
           TB0CCR1_H               03D5 
           TB0CCR1_L               03D4 
    -------------------------------------------------------------------------
DATA16_AN
  Relative segment, address: 03D6 - 03D7 (0x2 bytes), align: 0
  Segment part 10. ROOT.      Intra module refs:   initTb0
           ENTRY                   ADDRESS         REF BY
           =====                   =======         ======
           _A_TB0CCR2_L            03D6 
           LOCAL                   ADDRESS         
           =====                   =======         
           TB0CCR2                 03D6 
           TB0CCR2_H               03D7 
           TB0CCR2_L               03D6 
    -------------------------------------------------------------------------
DATA16_I
  Relative segment, address: 1C76 - 1C77 (0x2 bytes), align: 1
  Segment part 12.            Intra module refs:   calcuTask
                                                   setMaxFlow
           LOCAL                   ADDRESS         
           =====                   =======         
           MAXSAMPFLOW             1C76 
    -------------------------------------------------------------------------
DATA16_I
  Relative segment, address: 1C78 - 1C79 (0x2 bytes), align: 1
  Segment part 14.            Intra module refs:   calcuTask
                                                   setMinFlow
           LOCAL                   ADDRESS         
           =====                   =======         
           MINSAMPFLOW             1C78 
    -------------------------------------------------------------------------
DATA16_I
  Relative segment, address: 1C7A - 1C7B (0x2 bytes), align: 1
  Segment part 16.            Intra module refs:   calcuTask
                                                   changeFlow
                                                   getPFromFlow
                                                   setMidflow
                                                   startPump
                                                   writePToFlow
           LOCAL                   ADDRESS         
           =====                   =======         
           MIDFLOW                 1C7A 
    -------------------------------------------------------------------------
DATA16_Z
  Relative segment, address: 1FB7 - 1FB7 (0x1 bytes), align: 0
  Segment part 18.            Intra module refs:   calcuTask
                                                   pumpLoop
                                                   startPump
                                                   stopPump
           LOCAL                   ADDRESS         
           =====                   =======         
           startFlag               1FB7 
    -------------------------------------------------------------------------
DATA16_I
  Relative segment, address: 1C7C - 1C7D (0x2 bytes), align: 1
  Segment part 19.            Intra module refs:   changeFlow
                                                   changePresure
                                                   pumpLoop
                                                   startPump
           LOCAL                   ADDRESS         
           =====                   =======         
           smpPresure              1C7C 
    -------------------------------------------------------------------------
DATA16_I
  Relative segment, address: 1C7E - 1C7F (0x2 bytes), align: 1
  Segment part 21.            Intra module refs:   calcuTask
                                                   changeFlow
                                                   pumpLoop
                                                   startPump
           LOCAL                   ADDRESS         
           =====                   =======         
           smpFlow                 1C7E 
    -------------------------------------------------------------------------
DATA16_Z
  Relative segment, address: 1F08 - 1F09 (0x2 bytes), align: 1
  Segment part 23.            Intra module refs:   calcuTask
                                                   getCurFlow
           LOCAL                   ADDRESS         
           =====                   =======         
           curFlow                 1F08 
    -------------------------------------------------------------------------
DATA16_Z
  Relative segment, address: 1F0A - 1F0B (0x2 bytes), align: 1
  Segment part 24.            Intra module refs:   calcuTask
                                                   getFault
                                                   startPump
           LOCAL                   ADDRESS         
           =====                   =======         
           fault                   1F0A 
    -------------------------------------------------------------------------
DATA16_I
  Relative segment, address: 1C80 - 1C81 (0x2 bytes), align: 1
  Segment part 25.            Intra module refs:   calcuTask
                                                   pumpLoop
                                                   startPump
           LOCAL                   ADDRESS         
           =====                   =======         
           dutyVal                 1C80 
    -------------------------------------------------------------------------
DATA16_Z
  Relative segment, address: 1F0C - 1F0D (0x2 bytes), align: 1
  Segment part 27.            Intra module refs:   calcuTask
                                                   startPump
           LOCAL                   ADDRESS         
           =====                   =======         
           faultCnt                1F0C 
    -------------------------------------------------------------------------
<CODE> 2 (was CODE)
  Relative segment, address: 0002B19E - 0002B1C3 (0x26 bytes), align: 1
  Segment part 29.            Intra module refs:   initPumpPwm
           ENTRY                   ADDRESS         REF BY
           =====                   =======         ======
           initTb0                 0002B19E 
               CSTACK = 00000000 ( 00000004 )
    -------------------------------------------------------------------------
<CODE> 2 (was CODE)
  Relative segment, address: 0002B26A - 0002B287 (0x1e bytes), align: 1
  Segment part 28.            Intra module refs:   initPumpPwm
           ENTRY                   ADDRESS         REF BY
           =====                   =======         ======
           initPumpIo              0002B26A 
               CSTACK = 00000000 ( 00000004 )
    -------------------------------------------------------------------------
<CODE> 2 (was CODE)
  Relative segment, address: 0002B642 - 0002B649 (0x8 bytes), align: 1
  Segment part 30.            Intra module refs:   pumpLoop
           ENTRY                   ADDRESS         REF BY
           =====                   =======         ======
           initPumpPwm             0002B642 
               calls direct
               CSTACK = 00000000 ( 00000004 )
    -------------------------------------------------------------------------
<CODE> 2 (was CODE)
  Relative segment, address: 0002B592 - 0002B59D (0xc bytes), align: 1
  Segment part 43.
           ENTRY                   ADDRESS         REF BY
           =====                   =======         ======
           setMaxFlow              0002B592        newGui (display)
               CSTACK = 00000000 ( 00000004 )
    -------------------------------------------------------------------------
<CODE> 2 (was CODE)
  Relative segment, address: 0002B5E6 - 0002B5F1 (0xc bytes), align: 1
  Segment part 42.
           ENTRY                   ADDRESS         REF BY
           =====                   =======         ======
           setMinFlow              0002B5E6        newGui (display)
               CSTACK = 00000000 ( 00000004 )
    -------------------------------------------------------------------------
<CODE> 2 (was CODE)
  Relative segment, address: 0002B5C2 - 0002B5CD (0xc bytes), align: 1
  Segment part 41.
           ENTRY                   ADDRESS         REF BY
           =====                   =======         ======
           setMidflow              0002B5C2        newGui (display)
               CSTACK = 00000000 ( 00000004 )
    -------------------------------------------------------------------------
<CODE> 2 (was CODE)
  Relative segment, address: 00028C2C - 00028CBF (0x94 bytes), align: 1
  Segment part 40.
           ENTRY                   ADDRESS         REF BY
           =====                   =======         ======
           startPump               00028C2C        clewMenuOnOk (display)
                                                   sysExec (display)
                                                   topCylMenuOnOk (display)
                                                   topManuMenuOnOk (display)
               calls direct
               CSTACK = 00000000 ( 0000000C )
    -------------------------------------------------------------------------
<CODE> 2 (was CODE)
  Relative segment, address: 0002B22E - 0002B24B (0x1e bytes), align: 1
  Segment part 39.
           ENTRY                   ADDRESS         REF BY
           =====                   =======         ======
           stopPump                0002B22E        CwarnStopMenuOnEsc (display)
                                                   CwarnStopMenuOnOk (display)
                                                   MwarnStopMenuOnEsc (display)
                                                   MwarnStopMenuOnOk (display)
                                                   TwarnStopMenuOnEsc (display)
                                                   TwarnStopMenuOnOk (display)
                                                   calibrateFlowMenuOnEsc (display)
                                                   calibrateFlowMenuOnOk (display)
                                                   cylStartMenuOnEsc (display)
                                                   errorMenuOnOk (display)
                                                   keyEvent (display)
                                                   manuStartMenuOnEsc (display)
                                                   modSetMenuOnOk (display)
                                                   sysExec (display)
                                                   timeStartMenuOnEsc (display)
                                                   timeViewSetMenuOnOk (display)
                                                   timeViewStatusMenuOnOk (display)
               CSTACK = 00000000 ( 00000004 )
    -------------------------------------------------------------------------
<CODE> 2 (was CODE)
  Relative segment, address: 000299C2 - 00029A31 (0x70 bytes), align: 1
  Segment part 38.
           ENTRY                   ADDRESS         REF BY
           =====                   =======         ======
           changeFlow              000299C2        cylFlowSetMenuOnOk (display)
                                                   groupFlowSetMenuOnOk (display)
                                                   manuFlowSetMenuOnOk (display)
                                                   manuStartMenuOnLeft (display)
                                                   manuStartMenuOnRight (display)
               calls direct
               CSTACK = 00000000 ( 0000000C )
    -------------------------------------------------------------------------
<CODE> 2 (was CODE)
  Relative segment, address: 0002B5AA - 0002B5B5 (0xc bytes), align: 1
  Segment part 37.
           ENTRY                   ADDRESS         REF BY
           =====                   =======         ======
           changePresure           0002B5AA        calibrateFlowMenuOnDown (display)
                                                   calibrateFlowMenuOnLeft (display)
                                                   calibrateFlowMenuOnRight (display)
                                                   calibrateFlowMenuOnUp (display)
                                                   clewMenuOnOk (display)
               CSTACK = 00000000 ( 00000004 )
    -------------------------------------------------------------------------
<CODE> 2 (was CODE)
  Relative segment, address: 00029C4A - 00029CAF (0x66 bytes), align: 1
  Segment part 34.            Intra module refs:   calcuTask
           ENTRY                   ADDRESS         REF BY
           =====                   =======         ======
           getPFromFlow            00029C4A        calibrateFlowMenuOnDown (display)
                                                   calibrateFlowMenuOnUp (display)
                                                   clewMenuOnOk (display)
                                                   sysExec (display)
                                                   topCylMenuOnOk (display)
                                                   topManuMenuOnOk (display)
               calls direct
               CSTACK = 00000000 ( 0000000C )
    -------------------------------------------------------------------------
<CODE> 2 (was CODE)
  Relative segment, address: 000293B2 - 00029431 (0x80 bytes), align: 1
  Segment part 36.
           ENTRY                   ADDRESS         REF BY
           =====                   =======         ======
           writePToFlow            000293B2        calibrateFlowMenuOnDown (display)
                                                   calibrateFlowMenuOnOk (display)
                                                   calibrateFlowMenuOnUp (display)
                                                   clewMenuOnOk (display)
               calls direct
               CSTACK = 00000000 ( 0000000C )
    -------------------------------------------------------------------------
<CODE> 2 (was CODE)
  Relative segment, address: 0001D4C6 - 0001D76F (0x2aa bytes), align: 1
  Segment part 35.
           ENTRY                   ADDRESS         REF BY
           =====                   =======         ======
           calcuTask               0001D4C6        main (main)
               calls direct
               CSTACK = 00000000 ( 0000001A )
    -------------------------------------------------------------------------
<CODE> 2 (was CODE)
  Relative segment, address: 0002B56C - 0002B579 (0xe bytes), align: 1
  Segment part 33.
           ENTRY                   ADDRESS         REF BY
           =====                   =======         ======
           getFault                0002B56C        keyEvent (display)
               CSTACK = 00000000 ( 00000004 )
    -------------------------------------------------------------------------
<CODE> 2 (was CODE)
  Relative segment, address: 0002B55E - 0002B56B (0xe bytes), align: 1
  Segment part 32.
           ENTRY                   ADDRESS         REF BY
           =====                   =======         ======
           getCurFlow              0002B55E        keyEvent (display)
               CSTACK = 00000000 ( 00000004 )
    -------------------------------------------------------------------------
<CODE> 2 (was CODE)
  Relative segment, address: 00023CA8 - 00023E27 (0x180 bytes), align: 1
  Segment part 31.
           ENTRY                   ADDRESS         REF BY
           =====                   =======         ======
           pumpLoop                00023CA8        main (main)
               calls direct
               CSTACK = 00000000 ( 0000000C )
    -------------------------------------------------------------------------
DATA16_ID
  Relative segment, address: 83C4 - 83C5 (0x2 bytes), align: 1
  Segment part 13.            Intra module refs:   MAXSAMPFLOW
    -------------------------------------------------------------------------
DATA16_ID
  Relative segment, address: 83C6 - 83C7 (0x2 bytes), align: 1
  Segment part 15.            Intra module refs:   MINSAMPFLOW
    -------------------------------------------------------------------------
DATA16_ID
  Relative segment, address: 83C8 - 83C9 (0x2 bytes), align: 1
  Segment part 17.            Intra module refs:   MIDFLOW
    -------------------------------------------------------------------------
DATA16_ID
  Relative segment, address: 83CA - 83CB (0x2 bytes), align: 1
  Segment part 20.            Intra module refs:   smpPresure
    -------------------------------------------------------------------------
DATA16_ID
  Relative segment, address: 83CC - 83CD (0x2 bytes), align: 1
  Segment part 22.            Intra module refs:   smpFlow
    -------------------------------------------------------------------------
DATA16_ID
  Relative segment, address: 83CE - 83CF (0x2 bytes), align: 1
  Segment part 26.            Intra module refs:   dutyVal

    *************************************************************************

  FILE NAME : E:\工程\小个体\程序\samllSamp\Debug\Obj\semaphore.r43
  PROGRAM MODULE, NAME : semaphore

  SEGMENTS IN THE MODULE
  ======================
<CODE> 2 (was CODE)
  Relative segment, address: 0002B550 - 0002B55D (0xe bytes), align: 1
  Segment part 6.
           ENTRY                   ADDRESS         REF BY
           =====                   =======         ======
           initSema                0002B550        initKey (key)
               CSTACK = 00000000 ( 00000004 )
    -------------------------------------------------------------------------
<CODE> 2 (was CODE)
  Relative segment, address: 0002B1C4 - 0002B1E7 (0x24 bytes), align: 1
  Segment part 5.
           ENTRY                   ADDRESS         REF BY
           =====                   =======         ======
           upSema                  0002B1C4        getKey (key)
                                                   scanKey (key)
               calls direct
               CSTACK = 00000000 ( 00000006 )
    -------------------------------------------------------------------------
<CODE> 2 (was CODE)
  Relative segment, address: 0002B178 - 0002B19D (0x26 bytes), align: 1
  Segment part 4.
           ENTRY                   ADDRESS         REF BY
           =====                   =======         ======
           downSema                0002B178        getKey (key)
                                                   scanKey (key)
               calls direct
               CSTACK = 00000000 ( 00000006 )
    -------------------------------------------------------------------------
<CODE> 2 (was CODE)
  Relative segment, address: 0002B024 - 0002B053 (0x30 bytes), align: 1
  Segment part 3.             Intra module refs:   upSema
           ENTRY                   ADDRESS         REF BY
           =====                   =======         ======
           sWakeUp                 0002B024 
               calls direct
               CSTACK = 00000000 ( 0000000C )
    -------------------------------------------------------------------------
<CODE> 2 (was CODE)
  Relative segment, address: 0002A576 - 0002A5BB (0x46 bytes), align: 1
  Segment part 2.             Intra module refs:   downSema
           ENTRY                   ADDRESS         REF BY
           =====                   =======         ======
           sSleep                  0002A576 
               calls direct
               CSTACK = 00000000 ( 00000008 )

    *************************************************************************

  FILE NAME : E:\工程\小个体\程序\samllSamp\Debug\Obj\stack.r43
  PROGRAM MODULE, NAME : stack

  SEGMENTS IN THE MODULE
  ======================
DATA16_N
  Relative segment, address: 2A5C - 45B3 (0x1b58 bytes), align: 0
  Segment part 2.             Intra module refs:   allocStack
           LOCAL                   ADDRESS         
           =====                   =======         
           stackBuff               2A5C 
    -------------------------------------------------------------------------
DATA16_Z
  Relative segment, address: 1F0E - 1F0F (0x2 bytes), align: 1
  Segment part 3.             Intra module refs:   allocStack
           LOCAL                   ADDRESS         
           =====                   =======         
           nextStack               1F0E 
    -------------------------------------------------------------------------
<CODE> 2 (was CODE)
  Relative segment, address: 0002A31E - 0002A36B (0x4e bytes), align: 1
  Segment part 4.
           ENTRY                   ADDRESS         REF BY
           =====                   =======         ======
           allocStack              0002A31E        createXTask (task)
               CSTACK = 00000000 ( 0000000C )

    *************************************************************************

  FILE NAME : E:\工程\小个体\程序\samllSamp\Debug\Obj\task.r43
  PROGRAM MODULE, NAME : task

  SEGMENTS IN THE MODULE
  ======================
DATA16_Z
  Relative segment, address: 1F10 - 1F8F (0x80 bytes), align: 1
  Segment part 2.             Intra module refs:   schdule
           ENTRY                   ADDRESS         REF BY
           =====                   =======         ======
           priorTask               1F10            createTask (kernel)
                                                   initSys (kernel)
                                                   tickIsr (clock)
    -------------------------------------------------------------------------
DATA16_Z
  Relative segment, address: 1F90 - 1F91 (0x2 bytes), align: 1
  Segment part 3.             Intra module refs:   createXTask
                                                   schdule
                                                   sleepMs
                                                   sleep_delay
           ENTRY                   ADDRESS         REF BY
           =====                   =======         ======
           curTask                 1F90            Segment part 0 (port)
                                                   sSleep (semaphore)
                                                   startSys (kernel)
                                                   tickIsr (clock)
    -------------------------------------------------------------------------
DATA16_Z
  Relative segment, address: 1F92 - 1F95 (0x4 bytes), align: 1
  Segment part 4.
           ENTRY                   ADDRESS         REF BY
           =====                   =======         ======
           jiff                    1F92            tickIsr (clock)
    -------------------------------------------------------------------------
<CODE> 2 (was CODE)
  Relative segment, address: 00029FC0 - 0002A01B (0x5c bytes), align: 1
  Segment part 13.
           ENTRY                   ADDRESS         REF BY
           =====                   =======         ======
           createXTask             00029FC0        createTask (kernel)
               calls direct
               CSTACK = 00000000 ( 00000010 )
    -------------------------------------------------------------------------
<CODE> 2 (was CODE)
  Relative segment, address: 000274F4 - 000275D3 (0xe0 bytes), align: 1
  Segment part 12.            Intra module refs:   createXTask
           ENTRY                   ADDRESS         REF BY
           =====                   =======         ======
           initXTask               000274F4 
               CSTACK = 00000000 ( 00000004 )
    -------------------------------------------------------------------------
<CODE> 2 (was CODE)
  Relative segment, address: 0002A858 - 0002A895 (0x3e bytes), align: 1
  Segment part 11.
           ENTRY                   ADDRESS         REF BY
           =====                   =======         ======
           schdule                 0002A858        Segment part 0 (port)
               CSTACK = 00000000 ( 00000004 )
    -------------------------------------------------------------------------
<CODE> 2 (was CODE)
  Relative segment, address: 0002B68A - 0002B68B (0x2 bytes), align: 1
  Segment part 10.
           ENTRY                   ADDRESS         REF BY
           =====                   =======         ======
           powerSave               0002B68A        idel (kernel)
               CSTACK = 00000000 ( 00000004 )
    -------------------------------------------------------------------------
<CODE> 2 (was CODE)
  Relative segment, address: 0002B4C6 - 0002B4D9 (0x14 bytes), align: 1
  Segment part 9.
           ENTRY                   ADDRESS         REF BY
           =====                   =======         ======
           sleep_delay             0002B4C6        adcTask (adc12)
                                                   calcuTask (pump)
                                                   guiTask (main)
                                                   pumpLoop (pump)
                                                   scanKey (key)
               calls direct
               CSTACK = 00000000 ( 00000004 )
    -------------------------------------------------------------------------
<CODE> 2 (was CODE)
  Relative segment, address: 0002AC30 - 0002AC61 (0x32 bytes), align: 1
  Segment part 8.
           ENTRY                   ADDRESS         REF BY
           =====                   =======         ======
           sleepMs                 0002AC30        scanKey (key)
               calls direct
               CSTACK = 00000000 ( 00000008 )
    -------------------------------------------------------------------------
<CODE> 2 (was CODE)
  Relative segment, address: 0002A9FA - 0002AA2D (0x34 bytes), align: 1
  Segment part 5.
           ENTRY                   ADDRESS         REF BY
           =====                   =======         ======
           wakeUp                  0002A9FA        scanKey (key)
               calls direct
               CSTACK = 00000000 ( 0000000C )

    *************************************************************************

  FILE NAME : E:\工程\小个体\程序\samllSamp\Debug\Obj\taskqueue.r43
    *************************************************************************

  FILE NAME : E:\工程\小个体\程序\samllSamp\Debug\Obj\test.r43
  PROGRAM MODULE, NAME : test

  SEGMENTS IN THE MODULE
  ======================
DATA16_C
  Relative segment, address: 7F26 - 7F36 (0x11 bytes), align: 0
  Segment part 9.             Intra module refs:   disply_result
    -------------------------------------------------------------------------
DATA16_C
  Relative segment, address: 7F37 - 7F3D (0x7 bytes), align: 0
  Segment part 10.            Intra module refs:   disply_result
    -------------------------------------------------------------------------
DATA16_C
  Relative segment, address: 7F3E - 7F44 (0x7 bytes), align: 0
  Segment part 11.            Intra module refs:   disply_result
    -------------------------------------------------------------------------
DATA16_C
  Relative segment, address: 7F45 - 7F4B (0x7 bytes), align: 0
  Segment part 12.            Intra module refs:   disply_result
    -------------------------------------------------------------------------
DATA16_C
  Relative segment, address: 7F4C - 7F4E (0x3 bytes), align: 0
  Segment part 13.            Intra module refs:   disply_result
    -------------------------------------------------------------------------
DATA16_C
  Relative segment, address: 7F4F - 7F51 (0x3 bytes), align: 0
  Segment part 14.            Intra module refs:   disply_result
    -------------------------------------------------------------------------
DATA16_C
  Relative segment, address: 7F52 - 7F54 (0x3 bytes), align: 0
  Segment part 15.            Intra module refs:   disply_result
    -------------------------------------------------------------------------
DATA16_C
  Relative segment, address: 7F55 - 7F57 (0x3 bytes), align: 0
  Segment part 16.            Intra module refs:   disply_result
    -------------------------------------------------------------------------
DATA16_C
  Relative segment, address: 7F58 - 7F68 (0x11 bytes), align: 0
  Segment part 17.            Intra module refs:   check
    -------------------------------------------------------------------------
DATA16_C
  Relative segment, address: 7F69 - 7F6C (0x4 bytes), align: 0
  Segment part 18.            Intra module refs:   check
    -------------------------------------------------------------------------
DATA16_C
  Relative segment, address: 7F6D - 7F70 (0x4 bytes), align: 0
  Segment part 19.            Intra module refs:   check
    -------------------------------------------------------------------------
DATA16_C
  Relative segment, address: 7F71 - 7F74 (0x4 bytes), align: 0
  Segment part 20.            Intra module refs:   check
    -------------------------------------------------------------------------
DATA16_C
  Relative segment, address: 7F75 - 7F78 (0x4 bytes), align: 0
  Segment part 21.            Intra module refs:   check
    -------------------------------------------------------------------------
DATA16_C
  Relative segment, address: 7F79 - 7F7C (0x4 bytes), align: 0
  Segment part 22.            Intra module refs:   check
    -------------------------------------------------------------------------
DATA16_C
  Relative segment, address: 7F7D - 7F80 (0x4 bytes), align: 0
  Segment part 23.            Intra module refs:   check
    -------------------------------------------------------------------------
DATA16_C
  Relative segment, address: 7F81 - 7F84 (0x4 bytes), align: 0
  Segment part 24.            Intra module refs:   check
    -------------------------------------------------------------------------
DATA16_C
  Relative segment, address: 7F85 - 82CC (0x348 bytes), align: 0
  Segment part 25.            Intra module refs:   check
                                                   powerOff
           LOCAL                   ADDRESS         
           =====                   =======         
           open                    7F85 
    -------------------------------------------------------------------------
DATA16_C
  Relative segment, address: 82CD - 834C (0x80 bytes), align: 0
  Segment part 26.            Intra module refs:   powerOff
           LOCAL                   ADDRESS         
           =====                   =======         
           off                     82CD 
    -------------------------------------------------------------------------
DATA16_I
  Relative segment, address: 1C83 - 1C83 (0x1 bytes), align: 0
  Segment part 27.            Intra module refs:   check
           ENTRY                   ADDRESS         REF BY
           =====                   =======         ======
           test_flag               1C83 
    -------------------------------------------------------------------------
DATA16_Z
  Relative segment, address: 1F96 - 1F97 (0x2 bytes), align: 1
  Segment part 29.            Intra module refs:   check
                                                   check_state
           LOCAL                   ADDRESS         
           =====                   =======         
           cntstate                1F96 
    -------------------------------------------------------------------------
<CODE> 2 (was CODE)
  Relative segment, address: 0002B30E - 0002B325 (0x18 bytes), align: 1
  Segment part 31.            Intra module refs:   check
                                                   check_state
                                                   powerOff
           ENTRY                   ADDRESS         REF BY
           =====                   =======         ======
           delay_ms                0002B30E 
               CSTACK = 00000000 ( 00000004 )
    -------------------------------------------------------------------------
<CODE> 2 (was CODE)
  Relative segment, address: 0002AC62 - 0002AC93 (0x32 bytes), align: 1
  Segment part 33.            Intra module refs:   check
           ENTRY                   ADDRESS         REF BY
           =====                   =======         ======
           check_state             0002AC62 
               calls direct
               CSTACK = 00000000 ( 00000004 )
    -------------------------------------------------------------------------
<CODE> 2 (was CODE)
  Relative segment, address: 0001E1CE - 0001E455 (0x288 bytes), align: 1
  Segment part 32.            Intra module refs:   check
           ENTRY                   ADDRESS         REF BY
           =====                   =======         ======
           disply_result           0001E1CE 
               calls direct
               CSTACK = 00000000 ( 00000004 )
    -------------------------------------------------------------------------
<CODE> 2 (was CODE)
  Relative segment, address: 0002B61C - 0002B625 (0xa bytes), align: 1
  Segment part 36.
           ENTRY                   ADDRESS         REF BY
           =====                   =======         ======
           powerOn                 0002B61C        guiTask (main)
               CSTACK = 00000000 ( 00000004 )
    -------------------------------------------------------------------------
<CODE> 2 (was CODE)
  Relative segment, address: 000276B0 - 00027785 (0xd6 bytes), align: 1
  Segment part 35.
           ENTRY                   ADDRESS         REF BY
           =====                   =======         ======
           powerOff                000276B0        keyEvent (display)
                                                   sysExec (display)
               calls direct
               CSTACK = 00000000 ( 0000000C )
    -------------------------------------------------------------------------
DATA16_Z
  Relative segment, address: 1F98 - 1F9B (0x4 bytes), align: 1
  Segment part 30.            Intra module refs:   powerOff
           LOCAL                   ADDRESS         
           =====                   =======         
           powerOff::delay         1F98 
    -------------------------------------------------------------------------
<CODE> 2 (was CODE)
  Relative segment, address: 00023042 - 000231DB (0x19a bytes), align: 1
  Segment part 34.
           ENTRY                   ADDRESS         REF BY
           =====                   =======         ======
           check                   00023042        newGui (display)
               calls direct
               CSTACK = 00000000 ( 00000014 )
    -------------------------------------------------------------------------
DATA16_ID
  Relative segment, address: 83D1 - 83D1 (0x1 bytes), align: 0
  Segment part 28.            Intra module refs:   test_flag

    *************************************************************************

  FILE NAME : C:\Program Files\IAR Systems\Embedded Workbench 6.0 Evaluation\430\LIB\DLIB\dl430xsff.r43
  LIBRARY MODULE, NAME : ?Mul32fHwLoc2

  SEGMENTS IN THE MODULE
  ======================
<CODE> 2 (was CODE)
  Relative segment, address: 000256C0 - 000257F1 (0x132 bytes), align: 1
  Segment part 0.
           ENTRY                   ADDRESS         REF BY
           =====                   =======         ======
           ?Mul32fHwLoc2           000256C0        Segment part 4 (?sqrt)
                                                   calcuTask (pump)
                                                   cylSmpTimeSetMenuOnDown (display)
                                                   cylSmpTimeSetMenuOnLeft (display)
                                                   cylSmpTimeSetMenuOnOk (display)
                                                   cylSmpTimeSetMenuOnRight (display)
                                                   cylSmpTimeSetMenuOnUp (display)
                                                   cylSmpTimeSetMenuShow (display)
                                                   cylViewStatusMenuExec (display)
                                                   cylViewStatusMenuShow (display)
                                                   draw_line (lcd)
                                                   ftoa (lcd)
                                                   percent_show (display)
                                                   pumpLoop (pump)
                                                   smpTimeMenuOnDown (display)
                                                   smpTimeMenuOnLeft (display)
                                                   smpTimeMenuOnOk (display)
                                                   smpTimeMenuOnRight (display)
                                                   smpTimeMenuOnUp (display)
                                                   smpTimeMenuShow (display)
                                                   sqrt (?sqrt)
                                                   sysExec (display)
                                                   timeViewStatusMenuExec (display)
                                                   timeViewStatusMenuOnDown (display)
                                                   timeViewStatusMenuOnUp (display)
                                                   timeViewStatusMenuShow (display)

    -------------------------------------------------------------------------
  LIBRARY MODULE, NAME : ?__dbg_break

  SEGMENTS IN THE MODULE
  ======================
<CODE> 2 (was CODE)
  Relative segment, address: 0002B69A - 0002B69B (0x2 bytes), align: 1
  Segment part 2.
           ENTRY                   ADDRESS         REF BY
           =====                   =======         ======
           __DebugBreak            0002B69A        __exit (?__exit)
               not allocated function

    -------------------------------------------------------------------------
  LIBRARY MODULE, NAME : ?__exit

  SEGMENTS IN THE MODULE
  ======================
<CODE> 2 (was CODE)
  Relative segment, address: 0002B3FE - 0002B411 (0x14 bytes), align: 1
  Segment part 2.
           ENTRY                   ADDRESS         REF BY
           =====                   =======         ======
           __exit                  0002B3FE        Segment part 5 (?_exit)
                                                   _exit (?_exit)
               calls direct
               not allocated function

    -------------------------------------------------------------------------
  LIBRARY MODULE, NAME : ?_exit

  SEGMENTS IN THE MODULE
  ======================
<CODE> 2 (was CODE)
  Relative segment, address: 0002B66C, align: 1
  Segment part 0.
           ENTRY                   ADDRESS         REF BY
           =====                   =======         ======
           _exit                   0002B66C        exit (?exit)
    -------------------------------------------------------------------------
<CODE> 2 (was CODE)
  Relative segment, address: 0002B66C - 0002B66F (0x4 bytes), align: 1
  Segment part 5.             Intra module refs:   _exit

    -------------------------------------------------------------------------
  LIBRARY MODULE, NAME : ?cstart

  SEGMENTS IN THE MODULE
  ======================
CSTACK
  Relative segment, address: 5B00, align: 1
  Segment part 1.
    -------------------------------------------------------------------------
DATA16_Z
  Relative segment, address: 1F9C, align: 1
  Segment part 2.
    -------------------------------------------------------------------------
DATA16_I
  Relative segment, address: 1C82, align: 1
  Segment part 3.
    -------------------------------------------------------------------------
DATA16_ID
  Relative segment, address: 83D0, align: 1
  Segment part 4.
    -------------------------------------------------------------------------
CSTART
  Relative segment, address: 5C00 - 5C03 (0x4 bytes), align: 1
  Segment part 10.
           ENTRY                   ADDRESS         REF BY
           =====                   =======         ======
           __program_start         5C00            ?reset_vector (?reset_vector)
                                                   Absolute parts (?ABS_ENTRY_MOD)
           ?cstart_begin           5C00 
    -------------------------------------------------------------------------
CSTART
  Relative segment, address: 5C04 - 5C0F (0xc bytes), align: 1
  Segment part 13.
           ENTRY                   ADDRESS         REF BY
           =====                   =======         ======
           ?cstart_init_zero       5C04            DQ (adc12)
                                                   DQSum (adc12)
                                                   Segment part 2 (?xgetmemchunk)
                                                   __data16_Aldata (?xxmemxmalloc)
                                                   __iar_Errno (?errno)
                                                   batShow::batCount (display)
                                                   batShow::modInter (display)
                                                   batShow::oldLevel (display)
                                                   battery1 (adc12)
                                                   battery1Sum (adc12)
                                                   battery2 (adc12)
                                                   battery2Sum (adc12)
                                                   chargeCurSum (adc12)
                                                   chargeCurrent (adc12)
                                                   chargeStatus (charger)
                                                   cntstate (test)
                                                   curFlow (pump)
                                                   curTask (task)
                                                   cylStartMenuExec::old_dynamic_flow (display)
                                                   cylStartMenuExec::old_percent (display)
                                                   cylStartMenuExec::old_sec (display)
                                                   cylStartMenuExec::old_start_sec (display)
                                                   cylStartMenuExec::old_status (display)
                                                   cylStartMenuExec::old_used_time (display)
                                                   cylViewStatusMenuExec::old_dynamic_flow (display)
                                                   cylViewStatusMenuExec::old_percent (display)
                                                   cylViewStatusMenuExec::old_status (display)
                                                   cylViewStatusMenuExec::old_used_time (display)
                                                   cylsMoveFont::cyls (display)
                                                   fault (pump)
                                                   faultCnt (pump)
                                                   flashBuf (flash)
                                                   groupMoveFont::cyls (display)
                                                   gui (display)
                                                   index (key)
                                                   intCount (kernel)
                                                   isChargeFlag (charger)
                                                   jiff (task)
                                                   kWaitList (key)
                                                   keyBuf (key)
                                                   keySemaphore (key)
                                                   manuStartMenuExec::old_flow (display)
                                                   manuStartMenuExec::old_percent (display)
                                                   manuStartMenuExec::old_start_sec (display)
                                                   manuStartMenuExec::old_status (display)
                                                   manuStartMenuExec::old_used_time (display)
                                                   menuBuf (menu)
                                                   menuNum (menu)
                                                   modSetMenuExec::old_sec (display)
                                                   nextStack (stack)
                                                   otherComp (adc12)
                                                   password (display)
                                                   powerOff::delay (test)
                                                   preComp (adc12)
                                                   presureSum (adc12)
                                                   priorTask (task)
                                                   scanKey::P2INS (key)
                                                   scanKey::key (key)
                                                   scanKey::keyVal (key)
                                                   show_time::old_hour (display)
                                                   show_time::old_min (display)
                                                   show_time::old_sec (display)
                                                   startFlag (pump)
                                                   sysExec::old_complete (display)
                                                   sysExec::old_sec (display)
                                                   systems (display)
                                                   temp (adc12)
                                                   tempSum (adc12)
                                                   timeStartMenuExec::old_dynamic_flow (display)
                                                   timeStartMenuExec::old_percent (display)
                                                   timeStartMenuExec::old_sec (display)
                                                   timeStartMenuExec::old_start_sec (display)
                                                   timeStartMenuExec::old_status (display)
                                                   timeStartMenuExec::old_used_time (display)
                                                   timeStartMenuExec::sec (display)
                                                   timeViewStatusMenuExec::old_dynamic_flow (display)
                                                   timeViewStatusMenuExec::old_percent (display)
                                                   win (display)
    -------------------------------------------------------------------------
CSTART
  Relative segment, address: 5C10 - 5C1F (0x10 bytes), align: 1
  Segment part 14.
           ENTRY                   ADDRESS         REF BY
           =====                   =======         ======
           ?cstart_init_copy       5C10            MAXSAMPFLOW (pump)
                                                   MIDFLOW (pump)
                                                   MINSAMPFLOW (pump)
                                                   adcSmpFlag (adc12)
                                                   batLevel (charger)
                                                   cylsMoveFont::move (display)
                                                   cylsMoveFont::move_wait (display)
                                                   dutyVal (pump)
                                                   groupMoveFont::move (display)
                                                   groupMoveFont::move_wait (display)
                                                   set_bar_text (display)
                                                   set_bar_text_chn (display)
                                                   smpFlow (pump)
                                                   smpPresure (pump)
                                                   test_flag (test)
    -------------------------------------------------------------------------
CSTART
  Relative segment, address: 5C20 - 5C27 (0x8 bytes), align: 1
  Segment part 19.            Intra module refs:   Segment part 10
           ENTRY                   ADDRESS         REF BY
           =====                   =======         ======
           ?cstart_call_main       5C20 
           ?cstart_end             5C28 

    -------------------------------------------------------------------------
  LIBRARY MODULE, NAME : ?reset_vector

  SEGMENTS IN THE MODULE
  ======================
RESET
  Relative segment, address: FFFE - FFFF (0x2 bytes), align: 1
  Segment part 0.
           ENTRY                   ADDRESS         REF BY
           =====                   =======         ======
           ?reset_vector           FFFE            Segment part 10 (?cstart)

    -------------------------------------------------------------------------
  LIBRARY MODULE, NAME : ?errno

  SEGMENTS IN THE MODULE
  ======================
DATA16_Z
  Relative segment, address: 1F9C - 1F9D (0x2 bytes), align: 1
  Segment part 2.
           ENTRY                   ADDRESS         REF BY
           =====                   =======         ======
           __iar_Errno             1F9C            sqrt (?sqrt)

    -------------------------------------------------------------------------
  LIBRARY MODULE, NAME : ?exit

  SEGMENTS IN THE MODULE
  ======================
<CODE> 2 (was CODE)
  Relative segment, address: 0002B670 - 0002B673 (0x4 bytes), align: 1
  Segment part 2.
           ENTRY                   ADDRESS         REF BY
           =====                   =======         ======
           exit                    0002B670        Segment part 19 (?cstart)
               calls direct
               CSTACK = 00000000 ( 00000004 )

    -------------------------------------------------------------------------
  LIBRARY MODULE, NAME : ?Cast32f32i

  SEGMENTS IN THE MODULE
  ======================
<CODE> 2 (was CODE)
  Relative segment, address: 00028CC0 - 00028D51 (0x92 bytes), align: 1
  Segment part 0.
           ENTRY                   ADDRESS         REF BY
           =====                   =======         ======
           _Cast32sto32f           00028CC0        draw_line (lcd)
                                                   ftoa (lcd)
                                                   pumpLoop (pump)
           _Cast32uto32f           00028CD4        calcuTask (pump)
                                                   cylSmpTimeSetMenuOnDown (display)
                                                   cylSmpTimeSetMenuOnUp (display)
                                                   cylStartMenuExec (display)
                                                   draw_line (lcd)
                                                   keyEvent (display)
                                                   manuStartMenuExec (display)
                                                   modSetMenuExec (display)
                                                   smpTimeMenuOnDown (display)
                                                   smpTimeMenuOnUp (display)
                                                   sysExec (display)
                                                   timeStartMenuExec (display)

    -------------------------------------------------------------------------
  LIBRARY MODULE, NAME : _Cast32fto32u

  SEGMENTS IN THE MODULE
  ======================
<CODE> 2 (was CODE)
  Relative segment, address: 0002B59E - 0002B5A9 (0xc bytes), align: 1
  Segment part 0.
           ENTRY                   ADDRESS         REF BY
           =====                   =======         ======
           _Cast32fto32u           0002B59E        calcuTask (pump)
                                                   cylSmpTimeSetMenuOnDown (display)
                                                   cylSmpTimeSetMenuOnLeft (display)
                                                   cylSmpTimeSetMenuOnOk (display)
                                                   cylSmpTimeSetMenuOnRight (display)
                                                   cylSmpTimeSetMenuOnUp (display)
                                                   cylSmpTimeSetMenuShow (display)
                                                   cylStartMenuExec (display)
                                                   cylStartMenuShow (display)
                                                   cylViewStatusMenuExec (display)
                                                   cylViewStatusMenuShow (display)
                                                   draw_line (lcd)
                                                   manuStartMenuExec (display)
                                                   manuStartMenuShow (display)
                                                   percent_show (display)
                                                   smpTimeMenuOnDown (display)
                                                   smpTimeMenuOnLeft (display)
                                                   smpTimeMenuOnOk (display)
                                                   smpTimeMenuOnRight (display)
                                                   smpTimeMenuOnUp (display)
                                                   smpTimeMenuShow (display)
                                                   timeStartMenuExec (display)
                                                   timeStartMenuShow (display)
                                                   timeViewStatusMenuExec (display)
                                                   timeViewStatusMenuOnDown (display)
                                                   timeViewStatusMenuOnUp (display)
                                                   timeViewStatusMenuShow (display)
                                                   topCylMenuShow (display)
                                                   topManuMenuShow (display)
                                                   topTimeMenuShow (display)

    -------------------------------------------------------------------------
  LIBRARY MODULE, NAME : _Cast32fto32s

  SEGMENTS IN THE MODULE
  ======================
<CODE> 2 (was CODE)
  Relative segment, address: 0002AB9A - 0002ABCB (0x32 bytes), align: 1
  Segment part 0.
           ENTRY                   ADDRESS         REF BY
           =====                   =======         ======
           _Cast32fto32s           0002AB9A        ftoa (lcd)
                                                   pumpLoop (pump)

    -------------------------------------------------------------------------
  LIBRARY MODULE, NAME : ?FLT_Extract

  SEGMENTS IN THE MODULE
  ======================
<CODE> 2 (was CODE)
  Relative segment, address: 0002A36C - 0002A3B7 (0x4c bytes), align: 1
  Segment part 0.
           ENTRY                   ADDRESS         REF BY
           =====                   =======         ======
           ?FLT_Extract            0002A36C        _Cast32fto32s (_Cast32fto32s)
                                                   _Cast32fto32u (_Cast32fto32u)

    -------------------------------------------------------------------------
  LIBRARY MODULE, NAME : ?FLT_EQ

  SEGMENTS IN THE MODULE
  ======================
<CODE> 2 (was CODE)
  Relative segment, address: 0002AEA4 - 0002AED3 (0x30 bytes), align: 1
  Segment part 0.
           ENTRY                   ADDRESS         REF BY
           =====                   =======         ======
           ?FLT_EQ                 0002AEA4        _CmpEq32f (_CmpEq32f)
                                                   _CmpNe32f (_CmpNe32f)

    -------------------------------------------------------------------------
  LIBRARY MODULE, NAME : ?FLT_GE

  SEGMENTS IN THE MODULE
  ======================
<CODE> 2 (was CODE)
  Relative segment, address: 0002A128 - 0002A17D (0x56 bytes), align: 1
  Segment part 0.
           ENTRY                   ADDRESS         REF BY
           =====                   =======         ======
           ?FLT_GE                 0002A128        _CmpGe32f (_CmpGe32f)

    -------------------------------------------------------------------------
  LIBRARY MODULE, NAME : ?FLT_LT

  SEGMENTS IN THE MODULE
  ======================
<CODE> 2 (was CODE)
  Relative segment, address: 0002A2CC - 0002A31D (0x52 bytes), align: 1
  Segment part 0.
           ENTRY                   ADDRESS         REF BY
           =====                   =======         ======
           ?FLT_LT                 0002A2CC        _CmpLt32f (_CmpLt32f)

    -------------------------------------------------------------------------
  LIBRARY MODULE, NAME : _CmpEq32f

  SEGMENTS IN THE MODULE
  ======================
<CODE> 2 (was CODE)
  Relative segment, address: 0002B5DA - 0002B5E5 (0xc bytes), align: 1
  Segment part 0.
           ENTRY                   ADDRESS         REF BY
           =====                   =======         ======
           _CmpEq32f               0002B5DA        ftoa (lcd)

    -------------------------------------------------------------------------
  LIBRARY MODULE, NAME : _CmpNe32f

  SEGMENTS IN THE MODULE
  ======================
<CODE> 2 (was CODE)
  Relative segment, address: 0002B5F2 - 0002B5FD (0xc bytes), align: 1
  Segment part 0.
           ENTRY                   ADDRESS         REF BY
           =====                   =======         ======
           _CmpNe32f               0002B5F2        cylStartMenuExec (display)
                                                   cylViewStatusMenuExec (display)
                                                   manuStartMenuExec (display)
                                                   timeStartMenuExec (display)
                                                   timeViewStatusMenuExec (display)

    -------------------------------------------------------------------------
  LIBRARY MODULE, NAME : _CmpGe32f

  SEGMENTS IN THE MODULE
  ======================
<CODE> 2 (was CODE)
  Relative segment, address: 0002B630 - 0002B639 (0xa bytes), align: 1
  Segment part 0.
           ENTRY                   ADDRESS         REF BY
           =====                   =======         ======
           _CmpGe32f               0002B630        cylViewSetMenuShow (display)
                                                   cylViewStatusMenuExec (display)
                                                   cylViewStatusMenuShow (display)
                                                   ftoa (lcd)
                                                   modSetMenuExec (display)
                                                   percent_show (display)
                                                   pumpLoop (pump)
                                                   sysExec (display)
                                                   used_volume_show (display)

    -------------------------------------------------------------------------
  LIBRARY MODULE, NAME : _CmpLt32f

  SEGMENTS IN THE MODULE
  ======================
<CODE> 2 (was CODE)
  Relative segment, address: 0002B626 - 0002B62F (0xa bytes), align: 1
  Segment part 0.
           ENTRY                   ADDRESS         REF BY
           =====                   =======         ======
           _CmpLt32f               0002B626        draw_line (lcd)
                                                   ftoa (lcd)
                                                   pumpLoop (pump)
                                                   smpTimeMenuOnOk (display)
                                                   used_volume_show (display)

    -------------------------------------------------------------------------
  LIBRARY MODULE, NAME : _Div32f

  SEGMENTS IN THE MODULE
  ======================
<CODE> 2 (was CODE)
  Relative segment, address: 000257F2 - 00025921 (0x130 bytes), align: 1
  Segment part 0.
           ENTRY                   ADDRESS         REF BY
           =====                   =======         ======
           _Div32f                 000257F2        Segment part 5 (?sqrt)
                                                   calcuTask (pump)
                                                   cylSmpTimeSetMenuOnDown (display)
                                                   cylSmpTimeSetMenuOnLeft (display)
                                                   cylSmpTimeSetMenuOnOk (display)
                                                   cylSmpTimeSetMenuOnRight (display)
                                                   cylSmpTimeSetMenuOnUp (display)
                                                   cylSmpTimeSetMenuShow (display)
                                                   cylViewStatusMenuExec (display)
                                                   cylViewStatusMenuShow (display)
                                                   draw_line (lcd)
                                                   ftoa (lcd)
                                                   modSetMenuExec (display)
                                                   smpTimeMenuOnDown (display)
                                                   smpTimeMenuOnLeft (display)
                                                   smpTimeMenuOnOk (display)
                                                   smpTimeMenuOnRight (display)
                                                   smpTimeMenuOnUp (display)
                                                   smpTimeMenuShow (display)
                                                   sysExec (display)
                                                   used_volume_show (display)

    -------------------------------------------------------------------------
  LIBRARY MODULE, NAME : _Add32f

  SEGMENTS IN THE MODULE
  ======================
<CODE> 2 (was CODE)
  Relative segment, address: 00024DAE - 00024F0F (0x162 bytes), align: 1
  Segment part 0.
           ENTRY                   ADDRESS         REF BY
           =====                   =======         ======
           _Add32f                 00024DB2        Segment part 5 (?sqrt)
                                                   cylSmpTimeSetMenuOnDown (display)
                                                   cylSmpTimeSetMenuOnUp (display)
                                                   draw_line (lcd)
                                                   modSetMenuExec (display)
                                                   pumpLoop (pump)
                                                   smpTimeMenuOnDown (display)
                                                   smpTimeMenuOnUp (display)
                                                   sqrt (?sqrt)
                                                   sysExec (display)
           _Sub32f                 00024DAE        cylSmpTimeSetMenuOnDown (display)
                                                   cylSmpTimeSetMenuOnUp (display)
                                                   ftoa (lcd)
                                                   smpTimeMenuOnDown (display)
                                                   smpTimeMenuOnUp (display)

    -------------------------------------------------------------------------
  LIBRARY MODULE, NAME : ?DivMod816u

  SEGMENTS IN THE MODULE
  ======================
<CODE> 2 (was CODE)
  Relative segment, address: 0002B2A4 - 0002B2BF (0x1c bytes), align: 1
  Segment part 0.
           ENTRY                   ADDRESS         REF BY
           =====                   =======         ======
           ?DivMod8u               0002B2A4        Get_time (ds1302)
                                                   Set_time (ds1302)
                                                   clr_point (lcd)
                                                   clr_rect (lcd)
                                                   draw_point (lcd)
                                                   draw_symbol (lcd)
                                                   fill_rect (lcd)
           ?DivMod16u              0002B2A8        Segment part 0 (?DivMod816s)
                                                   changeFlow (pump)
                                                   cylSmpTimeSetMenuOnDown (display)
                                                   cylSmpTimeSetMenuOnLeft (display)
                                                   cylSmpTimeSetMenuOnOk (display)
                                                   cylSmpTimeSetMenuOnRight (display)
                                                   cylSmpTimeSetMenuOnUp (display)
                                                   cylSmpTimeSetMenuShow (display)
                                                   getPFromFlow (pump)
                                                   percent_show (display)
                                                   smpTimeMenuOnDown (display)
                                                   smpTimeMenuOnLeft (display)
                                                   smpTimeMenuOnOk (display)
                                                   smpTimeMenuOnRight (display)
                                                   smpTimeMenuOnUp (display)
                                                   smpTimeMenuShow (display)
                                                   startPump (pump)
                                                   writePToFlow (pump)

    -------------------------------------------------------------------------
  LIBRARY MODULE, NAME : ?DivMod816s

  SEGMENTS IN THE MODULE
  ======================
<CODE> 2 (was CODE)
  Relative segment, address: 0002AA62 - 0002AA95 (0x34 bytes), align: 1
  Segment part 0.
           ENTRY                   ADDRESS         REF BY
           =====                   =======         ======
           ?DivMod8s               0002AA62 
           ?DivMod16s              0002AA66        allocStack (stack)
                                                   changeFlow (pump)
                                                   clr_rect (lcd)
                                                   cylCyclesSetMenuOnDown (display)
                                                   cylCyclesSetMenuOnLeft (display)
                                                   cylCyclesSetMenuOnRight (display)
                                                   cylCyclesSetMenuOnUp (display)
                                                   cylCyclesSetMenuShow (display)
                                                   cylDelaySetMenuOnDown (display)
                                                   cylDelaySetMenuOnLeft (display)
                                                   cylDelaySetMenuOnRight (display)
                                                   cylDelaySetMenuOnUp (display)
                                                   cylDelaySetMenuShow (display)
                                                   cylSmpTimeSetMenuOnDown (display)
                                                   cylSmpTimeSetMenuOnLeft (display)
                                                   cylSmpTimeSetMenuOnOk (display)
                                                   cylSmpTimeSetMenuOnRight (display)
                                                   cylSmpTimeSetMenuOnUp (display)
                                                   cylSmpTimeSetMenuShow (display)
                                                   fill_rect (lcd)
                                                   flowSetDown (display)
                                                   flowSetLeft (display)
                                                   flowSetRight (display)
                                                   flowSetShow (display)
                                                   flowSetUp (display)
                                                   getPFromFlow (pump)
                                                   groupWorkTimeSetMenuOnDown (display)
                                                   groupWorkTimeSetMenuOnLeft (display)
                                                   groupWorkTimeSetMenuOnRight (display)
                                                   groupWorkTimeSetMenuOnUp (display)
                                                   groupWorkTimeSetMenuShow (display)
                                                   int_to_char (lcd)
                                                   print_time (lcd)
                                                   sqrt (?sqrt)
                                                   startPump (pump)
                                                   writePToFlow (pump)

    -------------------------------------------------------------------------
  LIBRARY MODULE, NAME : ?DivMod32u

  SEGMENTS IN THE MODULE
  ======================
<CODE> 2 (was CODE)
  Relative segment, address: 0002A9C2 - 0002A9F9 (0x38 bytes), align: 1
  Segment part 0.
           ENTRY                   ADDRESS         REF BY
           =====                   =======         ======
           ?DivMod32u              0002A9C2        getBattery1 (adc12)
                                                   getPAdc (adc12)

    -------------------------------------------------------------------------
  LIBRARY MODULE, NAME : ?memcpy

  SEGMENTS IN THE MODULE
  ======================
<CODE> 2 (was CODE)
  Relative segment, address: 0002B512 - 0002B523 (0x12 bytes), align: 1
  Segment part 2.
           ENTRY                   ADDRESS         REF BY
           =====                   =======         ======
           memcpy                  0002B512        __data16_memcpy (?memzero)
               CSTACK = 00000000 ( 00000004 )

    -------------------------------------------------------------------------
  LIBRARY MODULE, NAME : ?ClearMemoryWords

  SEGMENTS IN THE MODULE
  ======================
<CODE> 2 (was CODE)
  Relative segment, address: 0002B524 - 0002B533 (0x10 bytes), align: 1
  Segment part 0.
           ENTRY                   ADDRESS         REF BY
           =====                   =======         ======
           ?ClearMemoryWords       0002B524        adcTask (adc12)

    -------------------------------------------------------------------------
  LIBRARY MODULE, NAME : ?memzero

  SEGMENTS IN THE MODULE
  ======================
<CODE> 2 (was CODE)
  Relative segment, address: 0002B500 - 0002B511 (0x12 bytes), align: 1
  Segment part 4.
           ENTRY                   ADDRESS         REF BY
           =====                   =======         ======
           __data16_memzero        0002B500        ?cstart_init_zero (?cstart)
               CSTACK = 00000000 ( 00000004 )
    -------------------------------------------------------------------------
<CODE> 2 (was CODE)
  Relative segment, address: 0002B664 - 0002B667 (0x4 bytes), align: 1
  Segment part 3.
           ENTRY                   ADDRESS         REF BY
           =====                   =======         ======
           __data16_memcpy         0002B664        ?cstart_init_copy (?cstart)
               calls direct
               CSTACK = 00000000 ( 00000004 )

    -------------------------------------------------------------------------
  LIBRARY MODULE, NAME : ?IndCallR11

  SEGMENTS IN THE MODULE
  ======================
<CODE> 2 (was CODE)
  Relative segment, address: 0002B660 - 0002B663 (0x4 bytes), align: 1
  Segment part 0.
           ENTRY                   ADDRESS         REF BY
           =====                   =======         ======
           ?IndCallR11             0002B660        runIntIsr (kernel)

    -------------------------------------------------------------------------
  LIBRARY MODULE, NAME : ?IndCallR15

  SEGMENTS IN THE MODULE
  ======================
<CODE> 2 (was CODE)
  Relative segment, address: 0002B668 - 0002B66B (0x4 bytes), align: 1
  Segment part 0.
           ENTRY                   ADDRESS         REF BY
           =====                   =======         ======
           ?IndCallR15             0002B668        CwarnStopMenuOnEsc (display)
                                                   CwarnStopMenuOnOk (display)
                                                   MwarnStopMenuOnEsc (display)
                                                   MwarnStopMenuOnOk (display)
                                                   TwarnStopMenuOnEsc (display)
                                                   TwarnStopMenuOnOk (display)
                                                   allSetMenuOnEsc (display)
                                                   allSetMenuOnOk (display)
                                                   batlevelExec (display)
                                                   calibrateFlowMenuOnEsc (display)
                                                   calibrateFlowMenuOnOk (display)
                                                   clewMenuOnEsc (display)
                                                   clewMenuOnOk (display)
                                                   cylCyclesSetMenuOnEsc (display)
                                                   cylCyclesSetMenuOnOk (display)
                                                   cylDelaySetMenuOnEsc (display)
                                                   cylDelaySetMenuOnOk (display)
                                                   cylFlowSetMenuOnEsc (display)
                                                   cylFlowSetMenuOnOk (display)
                                                   cylParaSetMenuOnEsc (display)
                                                   cylParaSetMenuOnOk (display)
                                                   cylSmpTimeSetMenuOnEsc (display)
                                                   cylSmpTimeSetMenuOnOk (display)
                                                   cylStartMenuOnEsc (display)
                                                   cylStartMenuOnOk (display)
                                                   cylViewMenuOnEsc (display)
                                                   cylViewMenuOnOk (display)
                                                   cylViewSetMenuOnEsc (display)
                                                   cylViewSetMenuOnOk (display)
                                                   cylViewStatusMenuOnEsc (display)
                                                   cylViewStatusMenuOnOk (display)
                                                   errFlowMenuOnOk (display)
                                                   errorMenuOnOk (display)
                                                   groupFlowSetMenuOnEsc (display)
                                                   groupFlowSetMenuOnOk (display)
                                                   groupParaSetMenuOnEsc (display)
                                                   groupParaSetMenuOnOk (display)
                                                   groupSetMenuOnEsc (display)
                                                   groupSetMenuOnOk (display)
                                                   groupWarnMenuOnOk (display)
                                                   groupWorkTimeSetMenuOnEsc (display)
                                                   groupWorkTimeSetMenuOnOk (display)
                                                   guiExec (display)
                                                   guiTask (main)
                                                   inputNumberMenuOnEsc (display)
                                                   inputNumberMenuOnOk (display)
                                                   keyEvent (display)
                                                   languageSetMenuOnEsc (display)
                                                   languageSetMenuOnOk (display)
                                                   manuFlowSetMenuOnEsc (display)
                                                   manuFlowSetMenuOnOk (display)
                                                   manuStartMenuOnEsc (display)
                                                   manuStartMenuOnOk (display)
                                                   modSetMenuOnEsc (display)
                                                   modSetMenuOnOk (display)
                                                   newGui (display)
                                                   parameterSetMenuShow (display)
                                                   powerTimeSetMenuOnEsc (display)
                                                   powerTimeSetMenuOnOk (display)
                                                   smpTimeMenuOnEsc (display)
                                                   smpTimeMenuOnOk (display)
                                                   smpTimeWarnMenuOnOk (display)
                                                   sysExec (display)
                                                   sysTimeSetMenuOnEsc (display)
                                                   sysTimeSetMenuOnOk (display)
                                                   timePowerOffSetMenuOnEsc (display)
                                                   timePowerOffSetMenuOnOk (display)
                                                   timeStartMenuOnEsc (display)
                                                   timeStartMenuOnOk (display)
                                                   timeStartMenuShow (display)
                                                   timeViewMenuOnEsc (display)
                                                   timeViewMenuOnOk (display)
                                                   timeViewSetMenuOnEsc (display)
                                                   timeViewSetMenuOnOk (display)
                                                   timeViewStatusMenuOnEsc (display)
                                                   timeViewStatusMenuOnOk (display)
                                                   topAssistMenuShow (display)
                                                   topCylMenuOnOk (display)
                                                   topManuMenuOnOk (display)
                                                   topTimeMenuOnOk (display)
                                                   twoErrMenuOkKey (display)

    -------------------------------------------------------------------------
  LIBRARY MODULE, NAME : ?sqrt

  SEGMENTS IN THE MODULE
  ======================
<CODE> 2 (was CODE)
  Relative segment, address: 0002A404 - 0002A44F (0x4c bytes), align: 1
  Segment part 2.             Intra module refs:   sqrt
           ENTRY                   ADDRESS         REF BY
           =====                   =======         ======
           __iar_Dunscale          0002A404 
               CSTACK = 00000000 ( 00000004 )
    -------------------------------------------------------------------------
<CODE> 2 (was CODE)
  Relative segment, address: 00026E86 - 00026F79 (0xf4 bytes), align: 1
  Segment part 3.
           ENTRY                   ADDRESS         REF BY
           =====                   =======         ======
           sqrt                    00026E86        draw_line (lcd)
               calls direct
               CSTACK = 00000000 ( 00000012 )
    -------------------------------------------------------------------------
<CODE> 2 (was CODE)
  Relative segment, address: 0002B5CE - 0002B5D9 (0xc bytes), align: 1
  Segment part 4.             Intra module refs:   sqrt
    -------------------------------------------------------------------------
<CODE> 1 (was CODE)
  Relative segment, address: FF62 - FF7F (0x1e bytes), align: 1
  Segment part 5.             Intra module refs:   sqrt

    -------------------------------------------------------------------------
  LIBRARY MODULE, NAME : ?xdscale

  SEGMENTS IN THE MODULE
  ======================
<CODE> 2 (was CODE)
  Relative segment, address: 000289D6 - 00028A6D (0x98 bytes), align: 1
  Segment part 2.
           ENTRY                   ADDRESS         REF BY
           =====                   =======         ======
           __iar_Dscale            000289D6        sqrt (?sqrt)
               CSTACK = 00000000 ( 00000008 )

    -------------------------------------------------------------------------
  LIBRARY MODULE, NAME : ?xgetmemchunk

  SEGMENTS IN THE MODULE
  ======================
<CODE> 2 (was CODE)
  Relative segment, address: 0002B288 - 0002B2A3 (0x1c bytes), align: 1
  Segment part 3.
           ENTRY                   ADDRESS         REF BY
           =====                   =======         ======
           __data16_GetMemChunk    0002B288        __data16_findmem (?xxmemxmalloc)
               CSTACK = 00000000 ( 00000004 )
    -------------------------------------------------------------------------
DATA16_Z
  Relative segment, address: 1F9E - 1F9F (0x2 bytes), align: 1
  Segment part 2.             Intra module refs:   __data16_GetMemChunk
    -------------------------------------------------------------------------
DATA16_HEAP
  Relative segment, address: 45B4, align: 1
  Segment part 4.

    -------------------------------------------------------------------------
  LIBRARY MODULE, NAME : ?xxmemxfree

  SEGMENTS IN THE MODULE
  ======================
<CODE> 2 (was CODE)
  Relative segment, address: 00028D52 - 00028DE1 (0x90 bytes), align: 1
  Segment part 2.
           ENTRY                   ADDRESS         REF BY
           =====                   =======         ======
           __data16_free           00028D52        __data16_findmem (?xxmemxmalloc)
               CSTACK = 00000000 ( 00000006 )

    -------------------------------------------------------------------------
  LIBRARY MODULE, NAME : ?xxmemxmalloc

  SEGMENTS IN THE MODULE
  ======================
DATA16_Z
  Relative segment, address: 1FA0 - 1FA3 (0x4 bytes), align: 1
  Segment part 2.             Intra module refs:   __data16_findmem
                                                   __data16_malloc
           ENTRY                   ADDRESS         REF BY
           =====                   =======         ======
           __data16_Aldata         1FA0            __data16_free (?xxmemxfree)
    -------------------------------------------------------------------------
<CODE> 2 (was CODE)
  Relative segment, address: 00029BE4 - 00029C49 (0x66 bytes), align: 1
  Segment part 3.             Intra module refs:   __data16_malloc
           LOCAL                   ADDRESS         
           =====                   =======         
           __data16_findmem        00029BE4 
               calls direct
               CSTACK = 00000000 ( 00000006 )
    -------------------------------------------------------------------------
<CODE> 2 (was CODE)
  Relative segment, address: 00029AA2 - 00029B0F (0x6e bytes), align: 1
  Segment part 4.
           ENTRY                   ADDRESS         REF BY
           =====                   =======         ======
           __data16_malloc         00029AA2        malloc (display)
               calls direct
               CSTACK = 00000000 ( 00000006 )




                ****************************************
                *                                      *
                *      SEGMENTS IN ADDRESS ORDER       *
                *                                      *
                ****************************************


SEGMENT              SPACE    START ADDRESS   END ADDRESS     SIZE  TYPE  ALIGN
=======              =====    =============   ===========     ====  ====  =====
DATA16_AN                              0102 - 0103               2   rel    0
                                       0140 - 0141               2 
                                       0144 - 0145               2 
                                       015C - 015D               2 
                                       0166 - 0169               4 
                                       016C - 016F               4 
                                       0200 - 0205               6 
                                       0222 - 0225               4 
                                       022A - 022B               2 
                                       0240 - 0245               6 
                                       024A - 024B               2 
                                       0262 - 0265               4 
                                       026A - 026B               2 
                                       0282 - 0285               4 
                                       0340 - 0343               4 
                                       0352 - 0353               2 
                                       03C0 - 03C1               2 
                                       03C4 - 03C7               4 
                                       03D2 - 03D7               6 
                                       0700 - 0705               6 
                                       070A - 070B               2 
                                       0710 - 0715               6 
                                       0720 - 072B               C 
DATA16_I                               1C00 - 1C83              84   rel    1
DATA16_Z                               1C84 - 1FB7             334   rel    1
DATA16_N                               1FB8 - 45B3            25FC   rel    1
DATA16_HEAP                            45B4 - 55B3            1000   rel    1
CSTACK                                 5B00 - 5BFF             100   rel    1
CSTART                                 5C00 - 5C27              28   rel    1
ISR_CODE                               5C28 - 5C41              1A   rel    1
DATA16_C                               5C42 - 834C            270B   rel    1
DATA16_ID                              834E - 83D1              84   rel    1
<CODE> 1                               83D2 - FF7F            7BAE   rel    1
INTVEC                                 FF80 - FFED              6E   com    1
RESET                                  FFFE - FFFF               2   rel    1
<CODE> 2                           00010000 - 0002B6B1       1B6B2   rel    1

                ****************************************
                *                                      *
                *        END OF CROSS REFERENCE        *
                *                                      *
                ****************************************

 144 146 bytes of CODE  memory
  15 028 bytes of DATA  memory (+ 90 absolute )
  10 127 bytes of CONST memory

Errors: none
Warnings: 1

